(dp0
(I7
I3
tp1
(dp2
S'down'
p3
I-1
sS'right'
p4
I-1
sS'up'
p5
I-1
sS'left'
p6
I-1
ss(I4
I7
tp7
(dp8
S'down'
p9
I-1
sS'right'
p10
I-1
sS'up'
p11
I-1
sS'left'
p12
I-1
ss(I1
I3
tp13
(dp14
S'down'
p15
F-0.4274204067323624
sS'right'
p16
F-0.42615246622473124
sS'up'
p17
F-0.42622692463282574
sS'left'
p18
F-0.42837776673626815
ss(I6
I6
tp19
(dp20
g15
F-0.39548113740468277
sg16
F-0.39919456909934015
sg17
F-0.3956235814725625
sg18
F-0.4063681929756784
ss(I3
I0
tp21
(dp22
g15
F-0.35576165135596394
sg16
F-0.3467611073529051
sg17
F-0.34588761552110164
sg18
F-0.3489261642160298
ss(I2
I8
tp23
(dp24
g15
F-0.44854436134657427
sg16
F-0.4517097061042952
sg17
F-0.44950482427705146
sg18
F-0.45881178977000564
ss(I8
I0
tp25
(dp26
g15
I40
sg16
I40
sg17
I40
sg18
I40
ss(I7
I7
tp27
(dp28
g15
F-0.39724844254092473
sg16
F-0.3949846366535784
sg17
F-0.394699169328002
sg18
F-0.3953769892934175
ss(I0
I7
tp29
(dp30
g15
F-0.46746324616582996
sg16
F-0.45429662223609035
sg17
F1.5406935811522562
sg18
F-0.4563221280788724
ss(I4
I6
tp31
(dp32
g9
I-1
sg10
I-1
sg11
I-1
sg12
I-1
ss(I0
I1
tp33
(dp34
g15
F-0.318750070738098
sg16
F-0.3199642086850054
sg17
F-0.3188115657140954
sg18
F-0.3187472834526653
ss(I6
I2
tp35
(dp36
g9
I-1
sg10
I-1
sg11
I-1
sg12
I-1
ss(I1
I6
tp37
(dp38
g15
F-0.44659477141874027
sg16
F-0.4376313069451875
sg17
F2.6885837205504
sg18
F-0.4368119679928782
ss(I5
I1
tp39
(dp40
g15
F-0.6945499493511934
sg16
F-0.33666505590843154
sg17
F-0.3332711417902344
sg18
F-0.34173690127053624
ss(I3
I7
tp41
(dp42
g15
F-0.43749001040101076
sg16
F-0.4301541270856809
sg17
F-0.20241728968230685
sg18
F-0.43803517157961924
ss(I0
I3
tp43
(dp44
g15
F-0.4350764666035227
sg16
F-0.43247176816541905
sg17
F-0.42868978218572956
sg18
F-0.4286438531041742
ss(I8
I5
tp45
(dp46
g15
F-0.39431791730526644
sg16
F-0.39445065925038203
sg17
F-0.39621290233722894
sg18
F-0.3983829712987954
ss(I2
I5
tp47
(dp48
g15
F-0.4304584027425223
sg16
F-0.41465776808470894
sg17
F1.5461251173631372
sg18
F-0.4240171375575049
ss(I5
I8
tp49
(dp50
g3
F-0.5000000000291036
sg4
I-1
sg5
I-1
sg6
I-1
ss(I4
I0
tp51
(dp52
g15
F-0.35008876429519376
sg16
F-0.3413607257675843
sg17
F-0.3460332483039513
sg18
F-0.35259927832148885
ss(I1
I2
tp53
(dp54
g3
I-1
sg4
I-1
sg5
I-1
sg6
I-1
ss(I3
I8
tp55
(dp56
g15
F-0.44218613701580006
sg16
F-0.4423297219815654
sg17
F-0.44253443912849
sg18
F-0.45295838290569007
ss(I3
I1
tp57
(dp58
g15
F-0.3570190436032782
sg16
F-0.3356716384565691
sg17
F-0.3469461996380678
sg18
F-0.3465878235384585
ss(I6
I7
tp59
(dp60
g15
F-0.392561929028331
sg16
F-0.38835436532765155
sg17
F-0.39610738256184824
sg18
F-0.39298102981944427
ss(I3
I3
tp61
(dp62
g15
F-0.3755446248848697
sg16
F9.23078528
sg17
F-0.36108729009293616
sg18
F-0.36750573685053173
ss(I0
I6
tp63
(dp64
g15
F-0.45149554002615394
sg16
F2.0508669764403202
sg17
F-0.4417370471585599
sg18
F-0.4458869267395693
ss(I8
I1
tp65
(dp66
g15
F0.031263775912168244
sg16
F0.034621903309889575
sg17
F72.0
sg18
F0.1
ss(I7
I6
tp67
(dp68
g15
F-0.3975490009472249
sg16
F-0.40818647571698463
sg17
F-0.725836784733111
sg18
F-0.40722064827895255
ss(I4
I8
tp69
(dp70
g9
I-1
sg10
I-1
sg11
I-1
sg12
I-1
ss(I4
I4
tp71
(dp72
g9
I-1
sg10
I-1
sg11
I-1
sg12
I-1
ss(I6
I3
tp73
(dp74
g3
F-0.6120089652963594
sg4
I-1
sg5
I-1
sg6
I-1
ss(I1
I5
tp75
(dp76
g15
F-0.4246959044677894
sg16
F-0.4220962524098098
sg17
F3.485729650688001
sg18
F-0.43124509872352323
ss(I7
I2
tp77
(dp78
g15
F-0.07786232396387723
sg16
F45.89999999999999
sg17
F-0.07828363045867769
sg18
F-0.09910888282335736
ss(I3
I6
tp79
(dp80
g15
F-0.4258916429070201
sg16
F-0.418784760631751
sg17
F3.6487332088995355
sg18
F-0.4318899958015248
ss(I2
I2
tp81
(dp82
g9
I-1
sg10
I-1
sg11
I-1
sg12
I-1
ss(I3
I4
tp83
(dp84
g15
F-0.39721412376720877
sg16
F-0.3848250084908136
sg17
F7.284628224
sg18
F-0.3840875700192379
ss(I8
I6
tp85
(dp86
g15
F-0.40549235481169527
sg16
F-0.4080060181111709
sg17
F-0.39448939147044465
sg18
F-0.40641708218147893
ss(I3
I5
tp87
(dp88
g15
F-0.40656766086414076
sg16
F-0.40668899894965843
sg17
F5.5431822295094335
sg18
F-0.4010170536302012
ss(I4
I1
tp89
(dp90
g15
F-0.34116398989790553
sg16
F-0.3374380267496505
sg17
F-0.3542137498047083
sg18
F-0.34107205737239454
ss(I1
I1
tp91
(dp92
g15
F-0.3186774753838074
sg16
F-0.3186676161852101
sg17
F-0.3200466021804269
sg18
F-0.3187183677038854
ss(I6
I4
tp93
(dp94
g15
F-0.4038537859302527
sg16
F-0.6915583582937552
sg17
F-0.7334711621127238
sg18
F-0.41392125376935207
ss(I5
I6
tp95
(dp96
g15
F-0.3992343267175831
sg16
F-0.39577699934226884
sg17
F-0.4019897538477527
sg18
F-0.40648151838374713
ss(I0
I0
tp97
(dp98
g15
F-0.3188377086817681
sg16
F-0.31864227165266884
sg17
F-0.31881251912563535
sg18
F-0.31880413866262564
ss(I3
I2
tp99
(dp100
g15
F-0.3435583463072869
sg16
F-0.35375728672223455
sg17
F-0.3451567512631577
sg18
F-0.34683223118180734
ss(I5
I0
tp101
(dp102
g15
F-0.33190820326805126
sg16
F-0.32401431820436033
sg17
F-0.32908610287265166
sg18
F-0.3464098834036967
ss(I7
I1
tp103
(dp104
g3
I-1
sg4
I-1
sg5
I-1
sg6
I-1
ss(I4
I5
tp105
(dp106
g9
I-1
sg10
I-1
sg11
I-1
sg12
I-1
ss(I0
I4
tp107
(dp108
g15
F-0.4396442055277046
sg16
F0.24196307087059693
sg17
F-0.4308561872516706
sg18
F-0.4270246267076126
ss(I5
I5
tp109
(dp110
g15
F-0.4010057087659104
sg16
F-0.40859938433000886
sg17
F-0.4024755830587582
sg18
F-0.40442734093136967
ss(I1
I4
tp111
(dp112
g15
F-0.4203142952887726
sg16
F4.4821620633600014
sg17
F-0.42561598602107764
sg18
F-0.4230541304455749
ss(I6
I0
tp113
(dp114
g9
I-1
sg10
I-1
sg11
I-1
sg12
I-1
ss(I7
I5
tp115
(dp116
g3
F-0.5009120654838942
sg4
I-1
sg5
I-1
sg6
I-1
ss(I2
I3
tp117
(dp118
g9
I-1
sg10
I-1
sg11
I-1
sg12
I-1
ss(I2
I1
tp119
(dp120
g9
I-1
sg10
I-1
sg11
I-1
sg12
I-1
ss(I8
I7
tp121
(dp122
g15
F-0.407502946478978
sg16
F-0.40738658660802807
sg17
F-0.4007501823734799
sg18
F-0.40101417630568137
ss(I5
I4
tp123
(dp124
g15
F-0.4120175743476301
sg16
F-0.4154080964187007
sg17
F-0.5123150692470455
sg18
F-0.4144463877544841
ss(I4
I2
tp125
(dp126
g15
F-0.3483314162268982
sg16
F-0.6309662038517085
sg17
F-0.3423991743844535
sg18
F-0.34457629851444266
ss(I1
I0
tp127
(dp128
g15
F-0.31863036208481516
sg16
F-0.3169517393110876
sg17
F-0.3191831131125509
sg18
F-0.3186075890895639
ss(I0
I8
tp129
(dp130
g15
F-0.46615033349558554
sg16
F-0.4625202990444596
sg17
F1.1325548649218051
sg18
F-0.4634439845015984
ss(I8
I2
tp131
(dp132
g15
F-0.026055376193942617
sg16
F-0.026043626873713945
sg17
F57.5
sg18
F-0.026737470694385396
ss(I6
I5
tp133
(dp134
g15
F-0.403447969559268
sg16
F-0.39477780903111237
sg17
F-0.407409633792845
sg18
F-0.4007030132757483
ss(I5
I3
tp135
(dp136
g3
F-0.4418275617814217
sg4
I-1
sg5
I-1
sg6
I-1
ss(I2
I7
tp137
(dp138
g15
F-0.4524563748605651
sg16
F-0.4386188697553747
sg17
F-0.4405515028763778
sg18
F-0.44621526892603347
ss(I8
I3
tp139
(dp140
S'down'
p141
I-1
sS'right'
p142
I-1
sS'up'
p143
I-1
sS'left'
p144
I-1
ss(I7
I0
tp145
(dp146
g3
I-1
sg4
I-1
sg5
I-1
sg6
I-1
ss(I6
I8
tp147
(dp148
g15
F-0.3937372649426286
sg16
F-0.3953907238413437
sg17
F-0.39294575854153896
sg18
F-0.7136592503310718
ss(I5
I2
tp149
(dp150
g3
F-0.6633383896993719
sg4
I-1
sg5
I-1
sg6
I-1
ss(I6
I1
tp151
(dp152
g9
I-1
sg10
I-1
sg11
I-1
sg12
I-1
ss(I5
I7
tp153
(dp154
g15
F-0.4486218372308981
sg16
F-0.39274691533320927
sg17
F-0.39690773401320323
sg18
F-0.3779575589314397
ss(I2
I6
tp155
(dp156
g15
F-0.43455962381730756
sg16
F1.3549114097861636
sg17
F-0.43010071270037886
sg18
F-0.42865081719428355
ss(I0
I2
tp157
(dp158
g3
I-1
sg4
I-1
sg5
I-1
sg6
I-1
ss(I7
I4
tp159
(dp160
g3
F-0.7638473801140497
sg4
I-1
sg5
I-1
sg6
I-1
ss(I2
I0
tp161
(dp162
g9
I-1
sg10
I-1
sg11
I-1
sg12
I-1
ss(I1
I8
tp163
(dp164
g15
F-0.46189282318168773
sg16
F-0.4542992085506341
sg17
F-0.4569239349147976
sg18
F-0.46415479957955663
ss(I8
I8
tp165
(dp166
g15
F-0.3939527693949332
sg16
F-0.39392879552822035
sg17
F-0.4025482264544754
sg18
F-0.4071216361865908
ss(I4
I3
tp167
(dp168
g15
F-0.3614346030924073
sg16
F-0.3570976244748817
sg17
F-0.3527875091548246
sg18
F-0.35216539579926415
ss(I1
I7
tp169
(dp170
g15
F-0.44901805878493023
sg16
F-0.4481802664475811
sg17
F0.39446822984990526
sg18
F-0.4525308558743463
ss(I0
I5
tp171
(dp172
g15
F-0.44327138730020543
sg16
F-0.43223970767222175
sg17
F-0.4334437636672186
sg18
F-0.4420480748758027
ss(I7
I8
tp173
(dp174
g15
F-0.40696528241073965
sg16
F-0.39562113965628276
sg17
F-0.3969410223745088
sg18
F-0.3989107875295473
ss(I2
I4
tp175
(dp176
g15
F-0.4076078340286114
sg16
F5.727702579200001
sg17
F-0.41163931598118153
sg18
F-0.415711412292708
ss(I8
I4
tp177
(dp178
g15
F-0.39459252363806074
sg16
F-0.3965308767021397
sg17
F-0.39653613771890506
sg18
F-0.3993490575339971
ss.