(dp0
(I1
I3
tp1
(dp2
S'down'
p3
F2.7410969052854783
sS'right'
p4
F2.475278322051818
sS'up'
p5
F2.1184081073162284
sS'left'
p6
F1.7541922941686896
ss(I6
I6
tp7
(dp8
g3
F-0.4908356906913517
sg4
F-0.49083479384018947
sg5
F-0.28069022230071095
sg6
F-0.4912538073110473
ss(I3
I0
tp9
(dp10
g3
I15
sg4
I15
sg5
I15
sg6
I15
ss(I5
I4
tp11
(dp12
g3
F-0.1964982568832708
sg4
F-0.202412013538818
sg5
F-0.21684160591700113
sg6
F-0.2018192978504988
ss(I2
I1
tp13
(dp14
g3
F-0.49794820483125257
sg4
F7.324651825651503
sg5
F-0.49806319934964344
sg6
F-0.4979108099052807
ss(I5
I6
tp15
(dp16
g3
F-0.49219875614725417
sg4
F-0.291001263684894
sg5
F-0.4924848313621173
sg6
F-0.4919382439389519
ss(I2
I6
tp17
(dp18
g3
F6.244013305172517
sg4
F3.199241851354651
sg5
F4.276333999604421
sg6
F5.662403261268269
ss(I1
I6
tp19
(dp20
g3
F-0.49948802538871484
sg4
F5.591952481295282
sg5
F-0.4994393971372688
sg6
F-0.4994768948767019
ss(I5
I1
tp21
(dp22
g3
F7.777629854072074
sg4
F43.1
sg5
I15
sg6
I15
ss(I2
I5
tp23
(dp24
g3
F-0.49568629687661586
sg4
F1.8839063447477429
sg5
F-0.495812000410709
sg6
F-0.49601313934291336
ss(I0
I3
tp25
(dp26
g3
F-0.4990498455117415
sg4
F-0.49892065539196906
sg5
F5.341519072801885
sg6
F-0.4989056758161998
ss(I4
I0
tp27
(dp28
g3
I15
sg4
I15
sg5
I15
sg6
I15
ss(I1
I2
tp29
(dp30
g3
F8.642880689011122
sg4
F1.8047630226743974
sg5
F1.8047345643988217
sg6
F1.8338188427917466
ss(I3
I3
tp31
(dp32
g3
F-0.4960849527476747
sg4
F-0.4959403631016086
sg5
F17.358552674663574
sg6
F-0.49615907590092034
ss(I2
I0
tp33
(dp34
g3
F0.000890601662467988
sg4
F-0.4981974061540692
sg5
F-0.4981969307199211
sg6
F-0.4982531953391015
ss(I4
I4
tp35
(dp36
g3
F-0.4946061278308038
sg4
F-0.20705676944378193
sg5
F-0.4944963330366485
sg6
F-0.49510277492228905
ss(I6
I3
tp37
(dp38
g3
I15
sg4
I15
sg5
I15
sg6
I15
ss(I1
I5
tp39
(dp40
g3
F7.750984661582945
sg4
F2.5348883388132983
sg5
F4.08870999924276
sg6
F4.264386429504864
ss(I3
I6
tp41
(dp42
g3
F-0.4937807750129272
sg4
F-0.2622074433410481
sg5
F-0.49467155917319094
sg6
F-0.49384178692718483
ss(I2
I2
tp43
(dp44
g3
I15
sg4
I15
sg5
I15
sg6
I15
ss(I5
I3
tp45
(dp46
g3
F-0.4848376516453807
sg4
F-0.48434591777210434
sg5
F26.329961756227377
sg6
F-0.4845869042068607
ss(I4
I1
tp47
(dp48
g3
F9.932263135493137
sg4
F34.38
sg5
F12.244001111411741
sg6
F12.244001180025823
ss(I1
I1
tp49
(dp50
g3
I15
sg4
I15
sg5
I15
sg6
I15
ss(I6
I4
tp51
(dp52
g3
F-0.48899807228562564
sg4
F-0.48824123409284703
sg5
F-0.4886756221624915
sg6
F-0.23720216510033532
ss(I3
I2
tp53
(dp54
g3
F6.201214291183083
sg4
F13.18984518252389
sg5
F21.823199512490426
sg6
F12.61905759325327
ss(I0
I0
tp55
(dp56
g3
F-0.4987194002028915
sg4
F-0.49849609512298526
sg5
F-0.4985623253773862
sg6
F-0.4985618243872814
ss(I5
I0
tp57
(dp58
g3
F13.193964027175547
sg4
F54.0
sg5
I15
sg6
I15
ss(I4
I5
tp59
(dp60
g3
F-0.1848784443828756
sg4
F-0.10019832182600283
sg5
F-0.1399624536384111
sg6
F-0.1597055710256709
ss(I0
I4
tp61
(dp62
g3
F-0.49918225841775454
sg4
F-0.49919989297167244
sg5
F4.152319929285339
sg6
F-0.4992011238030471
ss(I5
I5
tp63
(dp64
g3
F-0.16276409181097504
sg4
F-0.18269402807679005
sg5
F-0.16725561094366448
sg6
F-0.15659201976389453
ss(I1
I4
tp65
(dp66
g3
F4.219502923324768
sg4
F3.255535998334966
sg5
F3.3798184543920535
sg6
F1.8023831586541101
ss(I6
I0
tp67
(dp68
g3
I30
sg4
I30
sg5
I30
sg6
I30
ss(I2
I3
tp69
(dp70
g3
F-0.49660813330126596
sg4
F-0.4969138690493813
sg5
F-0.4967163771507116
sg6
F2.3677819700124303
ss(I4
I2
tp71
(dp72
g3
I15
sg4
I15
sg5
I15
sg6
I15
ss(I1
I0
tp73
(dp74
g3
F-0.4982675778222312
sg4
F-0.49834045791024434
sg5
F-0.498251530149322
sg6
F-0.4984470556166697
ss(I6
I5
tp75
(dp76
g3
F-0.48978952368602124
sg4
F-0.4902467942574775
sg5
F-0.26527242164886805
sg6
F-0.49003614152263775
ss(I3
I5
tp77
(dp78
g3
F-0.2107815768472947
sg4
F-0.49492100676072914
sg5
F-0.4946314527484049
sg6
F-0.4954324151384506
ss(I0
I1
tp79
(dp80
g3
F-0.49878970566238906
sg4
F-0.4985659003504165
sg5
F-0.4986121753894303
sg6
F-0.49865778047940146
ss(I4
I6
tp81
(dp82
g3
F-0.49304077425408044
sg4
F-0.2940798310542776
sg5
F-0.49265958129963194
sg6
F-0.4933322816687682
ss(I5
I2
tp83
(dp84
g3
F-0.4840394979211963
sg4
F-0.48415371992110084
sg5
F34.24199634484755
sg6
F-0.4852544591653647
ss(I6
I1
tp85
(dp86
g3
F0.026945387363466952
sg4
F0.027146652359009787
sg5
F54.0
sg6
F0.1
ss(I3
I1
tp87
(dp88
g3
F13.04597751678246
sg4
F27.403999984572195
sg5
I15
sg6
I15
ss(I0
I2
tp89
(dp90
g3
F-0.49894846427643347
sg4
F6.811856638903578
sg5
F-0.4986712923029188
sg6
F-0.4986217548107353
ss(I0
I6
tp91
(dp92
g3
F-0.49945004948293376
sg4
F-0.49944429874980445
sg5
F2.367847461266146
sg6
F-0.4994462650604556
ss(I6
I2
tp93
(dp94
g3
I15
sg4
I15
sg5
I15
sg6
I15
ss(I4
I3
tp95
(dp96
g3
I15
sg4
I15
sg5
I15
sg6
I15
ss(I0
I5
tp97
(dp98
g3
F-0.49925044834152177
sg4
F-0.4992502301289631
sg5
F3.1775927048322
sg6
F-0.49925214511886307
ss(I3
I4
tp99
(dp100
g3
I15
sg4
I15
sg5
I15
sg6
I15
ss(I2
I4
tp101
(dp102
g3
F-0.4517474421579062
sg4
F-0.49672275979012825
sg5
F-0.4963930979228147
sg6
F-0.4964671443016086
ss.