(dp0
(I1
I3
tp1
(dp2
S'down'
p3
I-1
sS'right'
p4
I-1
sS'up'
p5
I-1
sS'left'
p6
I-1
ss(I3
I0
tp7
(dp8
g3
I-1
sg4
I-1
sg5
I-1
sg6
I-1
ss(I2
I1
tp9
(dp10
S'down'
p11
F-0.11720247773368235
sS'right'
p12
F11.340000000000002
sS'up'
p13
F-0.10263034468402596
sS'left'
p14
F-0.11596478594589502
ss(I0
I3
tp15
(dp16
g11
F-0.3792225351786158
sg12
F-0.3685368006368861
sg13
F2.6037849600000014
sg14
F-0.35538879578373606
ss(I4
I0
tp17
(dp18
g11
I10
sg12
I10
sg13
I10
sg14
I10
ss(I1
I2
tp19
(dp20
g3
I-1
sg4
I-1
sg5
I-1
sg6
I-1
ss(I3
I3
tp21
(dp22
g11
F0.015660047061536793
sg12
F0.017617607468430198
sg13
F0.01834712887468496
sg14
F0.1
ss(I4
I4
tp23
(dp24
g11
F0.01637019702166194
sg12
F0.016592925925113206
sg13
F0.01680929871588551
sg14
F0.017224300326596186
ss(I2
I2
tp25
(dp26
g3
I-1
sg4
I-1
sg5
I-1
sg6
I-1
ss(I4
I1
tp27
(dp28
g11
F0.019011337194707753
sg12
F0.01916844908551158
sg13
F18.0
sg14
F0.1
ss(I1
I1
tp29
(dp30
g3
I-1
sg4
I-1
sg5
I-1
sg6
I-1
ss(I3
I2
tp31
(dp32
g11
F0.015407891117988133
sg12
F0.018518855170852888
sg13
F0.018686690391942234
sg14
F0.1
ss(I0
I0
tp33
(dp34
g11
F-0.249451191537016
sg12
F5.562080000000002
sg13
F-0.23227187732533394
sg14
F-0.23240654903575592
ss(I0
I4
tp35
(dp36
g11
F-0.389902482625608
sg12
F-0.3902635311068903
sg13
F1.983027968000001
sg14
F-0.3926264693727432
ss(I1
I4
tp37
(dp38
g3
I-1
sg4
I-1
sg5
I-1
sg6
I-1
ss(I2
I3
tp39
(dp40
g11
F0.1
sg12
F0.1
sg13
F0.1
sg14
F0.1
ss(I4
I2
tp41
(dp42
g3
I-1
sg4
I-1
sg5
I-1
sg6
I-1
ss(I1
I0
tp43
(dp44
g11
F-0.22546772924344166
sg12
F7.077600000000002
sg13
F-0.17937435809106736
sg14
F-0.2186575162109353
ss(I0
I1
tp45
(dp46
g11
F-0.3103364154886382
sg12
F-0.2810417176784181
sg13
F4.3496640000000015
sg14
F-0.27672993655795264
ss(I3
I1
tp47
(dp48
g11
F0.015147186257614253
sg12
F14.3
sg13
F0.017806783083748362
sg14
F-0.028700215903884475
ss(I0
I2
tp49
(dp50
g11
F-0.3202779031063209
sg12
F-0.321140406445537
sg13
F3.3797312000000015
sg14
F-0.34597253954354795
ss(I2
I0
tp51
(dp52
g11
F8.972000000000001
sg12
F-0.17549704708989125
sg13
F-0.17533902102260202
sg14
F-0.13648892884910444
ss(I4
I3
tp53
(dp54
g11
F0.01701965293825125
sg12
F0.017806783083748362
sg13
F0.017991287320819747
sg14
F0.018171335569766314
ss(I3
I4
tp55
(dp56
g11
F0.0159041738085069
sg12
F0.016140745747410444
sg13
F0.017423529352837742
sg14
F0.1
ss(I2
I4
tp57
(dp58
g11
F0.1
sg12
F0.1
sg13
F0.1
sg14
F0.1
ss.