(dp0
(I1
I3
tp1
(dp2
S'down'
p3
I-1
sS'right'
p4
I-1
sS'up'
p5
I-1
sS'left'
p6
I-1
ss(I3
I0
tp7
(dp8
g3
I-1
sg4
I-1
sg5
I-1
sg6
I-1
ss(I2
I1
tp9
(dp10
g3
F-0.11720247773368235
sg4
F11.33999999999991
sg5
F-0.10263034468402596
sg6
F-0.11596478594589502
ss(I0
I3
tp11
(dp12
g3
F-0.3792225351786158
sg4
F-0.3685368006368861
sg5
F2.603784955317277
sg6
F-0.35538879578373606
ss(I4
I0
tp13
(dp14
g3
I10
sg4
I10
sg5
I10
sg6
I10
ss(I1
I2
tp15
(dp16
g3
I-1
sg4
I-1
sg5
I-1
sg6
I-1
ss(I3
I3
tp17
(dp18
g3
F0.015660047061536793
sg4
F0.017617607468430198
sg5
F0.01834712887468496
sg6
F0.1
ss(I4
I4
tp19
(dp20
g3
F0.01637019702166194
sg4
F0.016592925925113206
sg5
F0.01680929871588551
sg6
F0.017224300326596186
ss(I2
I2
tp21
(dp22
g3
I-1
sg4
I-1
sg5
I-1
sg6
I-1
ss(I4
I1
tp23
(dp24
g3
F0.019011337194707753
sg4
F0.01916844908551158
sg5
F18.0
sg6
F0.1
ss(I1
I1
tp25
(dp26
g3
I-1
sg4
I-1
sg5
I-1
sg6
I-1
ss(I3
I2
tp27
(dp28
g3
F0.015407891117988133
sg4
F0.018518855170852888
sg5
F0.018686690391942234
sg6
F0.1
ss(I0
I0
tp29
(dp30
g3
F-0.249451191537016
sg4
F5.562079999970196
sg5
F-0.23227187732533394
sg6
F-0.23240654903575592
ss(I0
I4
tp31
(dp32
g3
F-0.389902482625608
sg4
F-0.3902635311068903
sg5
F1.9830279526170433
sg6
F-0.3926264693727432
ss(I1
I4
tp33
(dp34
g3
I-1
sg4
I-1
sg5
I-1
sg6
I-1
ss(I2
I3
tp35
(dp36
g3
F0.1
sg4
F0.1
sg5
F0.1
sg6
F0.1
ss(I4
I2
tp37
(dp38
g3
I-1
sg4
I-1
sg5
I-1
sg6
I-1
ss(I1
I0
tp39
(dp40
g3
F-0.22546772924344166
sg4
F7.077599999996526
sg5
F-0.17937435809106736
sg6
F-0.2186575162109353
ss(I0
I1
tp41
(dp42
g3
F-0.3103364154886382
sg4
F-0.2810417176784181
sg5
F4.349663999798568
sg6
F-0.27672993655795264
ss(I3
I1
tp43
(dp44
g3
F0.015147186257614253
sg4
F14.299999999999997
sg5
F0.017806783083748362
sg6
F-0.028700215903884475
ss(I2
I4
tp45
(dp46
g3
F0.1
sg4
F0.1
sg5
F0.1
sg6
F0.1
ss(I2
I0
tp47
(dp48
g3
F8.971999999999692
sg4
F-0.17549704708989125
sg5
F-0.17533902102260202
sg6
F-0.13648892884910444
ss(I4
I3
tp49
(dp50
g3
F0.01701965293825125
sg4
F0.017806783083748362
sg5
F0.017991287320819747
sg6
F0.018171335569766314
ss(I3
I4
tp51
(dp52
g3
F0.0159041738085069
sg4
F0.016140745747410444
sg5
F0.017423529352837742
sg6
F0.1
ss(I0
I2
tp53
(dp54
g3
F-0.3202779031063209
sg4
F-0.321140406445537
sg5
F3.3797311989115366
sg6
F-0.34597253954354795
ss.