(dp0
(I1
I3
tp1
(dp2
S'down'
p3
F-0.3803506121535617
sS'right'
p4
F-0.3863902998979478
sS'up'
p5
F-0.384493861971936
sS'left'
p6
F-0.24034226248272206
ss(I6
I6
tp7
(dp8
g3
F-0.414029606074916
sg4
F-0.4140842042111219
sg5
F-0.42256867843273677
sg6
F-0.4165698366218491
ss(I3
I0
tp9
(dp10
g3
F-0.15499680803627902
sg4
F21.823199990668783
sg5
F-0.18218614933838545
sg6
F-0.1702146213422301
ss(I5
I4
tp11
(dp12
g3
F-0.4162147544098414
sg4
F-0.41555213338582453
sg5
F-0.41497922681138744
sg6
F-0.417916323559135
ss(I2
I1
tp13
(dp14
g3
F-0.1422911713131792
sg4
F-0.15768867534357384
sg5
F-0.20258787788512933
sg6
F-0.13910000200119996
ss(I5
I6
tp15
(dp16
g3
F-0.4166670240639982
sg4
F-0.41423444158042094
sg5
F-0.42232103498031937
sg6
F-0.4186019780160611
ss(I2
I6
tp17
(dp18
g3
F-0.4160058966723494
sg4
F-0.4206317930534923
sg5
F-0.41598393476720136
sg6
F-0.42076353047642195
ss(I1
I6
tp19
(dp20
g3
F-0.4238793178822815
sg4
F-0.42091556707182554
sg5
F-0.42655376466162487
sg6
F-0.4255364612773374
ss(I5
I1
tp21
(dp22
g3
F0.026577806461052518
sg4
F43.09999999999728
sg5
F-0.028968475080948308
sg6
F-0.0019381943249093744
ss(I2
I5
tp23
(dp24
g3
F-0.41483213409465974
sg4
F-0.4202283587204246
sg5
F-0.41418654256646603
sg6
F-0.41451193501805284
ss(I0
I3
tp25
(dp26
g3
F-0.3759527278176631
sg4
F-0.37744829619535025
sg5
F5.351720927466124
sg6
F-0.36525329356815844
ss(I4
I0
tp27
(dp28
g3
F27.403999999116554
sg4
F-0.13822673217823328
sg5
F-0.1382448842983962
sg6
F-0.09019778926195997
ss(I1
I2
tp29
(dp30
g3
F-0.3799897000210174
sg4
F-0.38137296013439587
sg5
F-0.3812550286112103
sg6
F-0.3770898443467437
ss(I3
I3
tp31
(dp32
g3
I-1
sg4
I-1
sg5
I-1
sg6
I-1
ss(I2
I0
tp33
(dp34
g3
F-0.1978401186802096
sg4
F17.35855992356281
sg5
F-0.21978075870368952
sg6
F-0.22896435843949753
ss(I4
I4
tp35
(dp36
g3
F-0.4162854211511954
sg4
F-0.4156429882521002
sg5
F-0.4162572203150505
sg6
F-0.41647411303334153
ss(I6
I3
tp37
(dp38
g3
I-1
sg4
I-1
sg5
I-1
sg6
I-1
ss(I1
I5
tp39
(dp40
g3
F-0.42261386063590095
sg4
F-0.42877403638144773
sg5
F-0.41175987480959914
sg6
F-0.41327939330896973
ss(I3
I6
tp41
(dp42
g3
F-0.42839957466080486
sg4
F-0.42811968952430857
sg5
F-0.4295496674948833
sg6
F-0.4209449801095751
ss(I2
I2
tp43
(dp44
g3
I-1
sg4
I-1
sg5
I-1
sg6
I-1
ss(I5
I3
tp45
(dp46
g3
I-1
sg4
I-1
sg5
I-1
sg6
I-1
ss(I4
I1
tp47
(dp48
g3
F-0.09061343381484568
sg4
F34.379999999939116
sg5
F-0.08854462870403147
sg6
F-0.08705073253745925
ss(I1
I1
tp49
(dp50
g3
I-1
sg4
I-1
sg5
I-1
sg6
I-1
ss(I6
I4
tp51
(dp52
g3
F-0.4137604956544786
sg4
F-0.4110170742356247
sg5
F-0.41101219343961654
sg6
F-0.4214301143808644
ss(I3
I2
tp53
(dp54
g3
F-0.09698435368431008
sg4
F-0.09694264866592889
sg5
F-0.13128708493352637
sg6
F-0.08820172945739904
ss(I0
I0
tp55
(dp56
g3
F-0.33159485995375415
sg4
F10.929475634244456
sg5
F-0.2859692339116528
sg6
F-0.2859758396446539
ss(I5
I0
tp57
(dp58
g3
I-1
sg4
I-1
sg5
I-1
sg6
I-1
ss(I4
I5
tp59
(dp60
g3
F-0.4200261383656827
sg4
F-0.4203171667029834
sg5
F-0.4169878780685862
sg6
F-0.421857897488341
ss(I0
I4
tp61
(dp62
g3
F-0.3932444705409477
sg4
F-0.4039025765498422
sg5
F4.181007111137153
sg6
F-0.4027441766472018
ss(I5
I5
tp63
(dp64
g3
F-0.41482999062266146
sg4
F-0.4233830660200461
sg5
F-0.4185233727896768
sg6
F-0.4215773485182083
ss(I1
I4
tp65
(dp66
g3
F-0.39929387724452803
sg4
F-0.4102841542954245
sg5
F-0.39783903087985206
sg6
F-0.11260651276267772
ss(I6
I0
tp67
(dp68
g3
I30
sg4
I30
sg5
I30
sg6
I30
ss(I2
I3
tp69
(dp70
g3
F-0.4110962087763739
sg4
F-0.39898787660096413
sg5
F-0.3955054978177071
sg6
F-0.39625252061619043
ss(I4
I2
tp71
(dp72
g3
I-1
sg4
I-1
sg5
I-1
sg6
I-1
ss(I1
I0
tp73
(dp74
g3
F-0.2578755520207016
sg4
F13.78684749484703
sg5
F-0.25642311726743217
sg6
F-0.2540175389990183
ss(I6
I5
tp75
(dp76
g3
F-0.4194126928143441
sg4
F-0.4133507549437943
sg5
F-0.4229279987647099
sg6
F-0.4216142381993013
ss(I3
I5
tp77
(dp78
g3
F-0.42800806674054637
sg4
F-0.41797986317962466
sg5
F-0.42647212538004853
sg6
F-0.42012130820821303
ss(I0
I1
tp79
(dp80
g3
F-0.34020650910705913
sg4
F-0.3429389420343324
sg5
F8.643569939977569
sg6
F-0.34347232836523867
ss(I4
I6
tp81
(dp82
g3
F-0.4188798468548365
sg4
F-0.4205242797378129
sg5
F-0.41956568322898163
sg6
F-0.42839252713536047
ss(I5
I2
tp83
(dp84
g3
F0.026631576156051995
sg4
F0.02668491584626153
sg5
F0.026996278972815535
sg6
F0.1
ss(I6
I1
tp85
(dp86
g3
F0.026894102765679426
sg4
F0.027096905941950175
sg5
F53.99999999999994
sg6
F0.1
ss(I3
I1
tp87
(dp88
g3
F-0.12057904712614823
sg4
F7.4338481471614095
sg5
F-0.1386626153778753
sg6
F-0.13520829822493946
ss(I0
I2
tp89
(dp90
g3
F-0.3519897489991626
sg4
F-0.3738951817665037
sg5
F6.8148156844038486
sg6
F-0.36389957275292956
ss(I0
I6
tp91
(dp92
g3
F-0.43831624095877086
sg4
F-0.4336291255801993
sg5
F2.49513687146291
sg6
F-0.43803232700014155
ss(I6
I2
tp93
(dp94
g3
F0.026737832049335983
sg4
F0.026790331138143008
sg5
F0.026842419344986778
sg6
F0.026945387363466952
ss(I4
I3
tp95
(dp96
g3
F-0.41805121524537237
sg4
F-0.4161953385640749
sg5
F-0.41621131554343227
sg6
F-0.41620192535836853
ss(I0
I5
tp97
(dp98
g3
F-0.4117154783054363
sg4
F-0.4180219072920191
sg5
F3.2447464499220895
sg6
F-0.412139673805209
ss(I3
I4
tp99
(dp100
g3
F-0.42590094136477674
sg4
F-0.41517408033372705
sg5
F-0.41791069780560375
sg6
F-0.41800733255625716
ss(I2
I4
tp101
(dp102
g3
F-0.4106238028442736
sg4
F-0.41595018387646476
sg5
F-0.4089234502816854
sg6
F-0.4113154455073843
ss.