(dp0
(I1
I3
tp1
(dp2
S'down'
p3
F-0.2882221042370928
sS'right'
p4
F10.929478090242867
sS'up'
p5
F-0.27897116921935394
sS'left'
p6
F-0.27262002130119467
ss(I6
I6
tp7
(dp8
g3
F-0.25004264796329767
sg4
F-0.2501458181724793
sg5
F-0.2585716479213878
sg6
F-0.26710533164773975
ss(I3
I0
tp9
(dp10
g3
I-1
sg4
I-1
sg5
I-1
sg6
I-1
ss(I5
I4
tp11
(dp12
g3
F-0.24597451846576449
sg4
F-0.2083554210108669
sg5
F8.802450296491674
sg6
F-0.21089340091208597
ss(I2
I1
tp13
(dp14
g3
F-0.15742206656569743
sg4
F16.337811002367225
sg5
F-0.19428257543264832
sg6
F-0.16232305459105137
ss(I5
I6
tp15
(dp16
g3
F-0.2536778632340309
sg4
F-0.2799644252948695
sg5
F-0.28281042648561366
sg6
F-0.28369269358060545
ss(I2
I6
tp17
(dp18
g3
F-0.3559290829400444
sg4
F-0.3478257388295253
sg5
F-0.35268086520981046
sg6
F-0.3659788976104896
ss(I1
I6
tp19
(dp20
g3
F-0.35924452626784253
sg4
F-0.36911445306917756
sg5
F0.5973259602693809
sg6
F-0.4008891258517451
ss(I5
I1
tp21
(dp22
g3
F0.02668491584626153
sg4
F42.78355905264702
sg5
F-0.0009551175838490474
sg6
F-0.007505127623265953
ss(I2
I5
tp23
(dp24
g3
F-0.36053065700230863
sg4
F-0.3318619133073817
sg5
F3.6097278483689768
sg6
F-0.33393339934868393
ss(I0
I3
tp25
(dp26
g3
F-0.30961688427369943
sg4
F8.6435811501886
sg5
F-0.29958179362465676
sg6
F-0.3192167314535286
ss(I4
I0
tp27
(dp28
g3
F0.022178448160576576
sg4
F43.099999999999014
sg5
F0.1
sg6
F0.1
ss(I1
I2
tp29
(dp30
g3
F-0.30274795163022866
sg4
F-0.29941347671660207
sg5
F-0.29950264685532557
sg6
F-0.2836350843562655
ss(I3
I3
tp31
(dp32
g3
F-0.21029417939946052
sg4
F-0.18343380412070887
sg5
F17.358559992251568
sg6
F-0.23246079715298285
ss(I2
I0
tp33
(dp34
g3
F3.7256524092580388
sg4
F-0.21153098935435632
sg5
F-0.21145825530515205
sg6
F-0.26645163336828953
ss(I4
I4
tp35
(dp36
g3
F-0.21028752888982052
sg4
F-0.22499434880706176
sg5
F-0.20916672992068192
sg6
F-0.1971997696234846
ss(I6
I3
tp37
(dp38
g3
I-1
sg4
I-1
sg5
I-1
sg6
I-1
ss(I1
I5
tp39
(dp40
g3
F-0.33859140822330186
sg4
F-0.34920356981868245
sg5
F4.155244229970267
sg6
F-0.3344116318280618
ss(I3
I6
tp41
(dp42
g3
F-0.3148605301590112
sg4
F-0.32247906795376335
sg5
F-0.3430621057833436
sg6
F-0.33321369231000386
ss(I2
I2
tp43
(dp44
g3
I-1
sg4
I-1
sg5
I-1
sg6
I-1
ss(I5
I3
tp45
(dp46
g3
F-0.16945590078563671
sg4
F-0.15922765015483997
sg5
F20.628681963609544
sg6
F-0.1928332701097093
ss(I4
I1
tp47
(dp48
g3
F-0.042484591778507504
sg4
F-0.03617325835062316
sg5
F34.379999999977194
sg6
F-0.015876058660410447
ss(I1
I1
tp49
(dp50
g3
I-1
sg4
I-1
sg5
I-1
sg6
I-1
ss(I6
I4
tp51
(dp52
g3
F-0.2397654928140426
sg4
F-0.2420428854833213
sg5
F-0.24188195076696928
sg6
F-0.24250880443715722
ss(I3
I2
tp53
(dp54
g3
F-0.1309116767546762
sg4
F-0.15558735285741848
sg5
F21.823199999098037
sg6
F-0.17064501186053382
ss(I0
I0
tp55
(dp56
g3
F-0.2696174248474699
sg4
F-0.26091785466400064
sg5
F-0.2524700999397245
sg6
F-0.2526043547251274
ss(I5
I0
tp57
(dp58
g3
F0.027761412122887012
sg4
F53.99999999999998
sg5
F0.1
sg6
F0.1
ss(I4
I5
tp59
(dp60
g3
I-1
sg4
I-1
sg5
I-1
sg6
I-1
ss(I0
I4
tp61
(dp62
g3
F-0.33502631884931844
sg4
F-0.3253988094005365
sg5
F6.814858915048924
sg6
F-0.32630422615869636
ss(I5
I5
tp63
(dp64
g3
F-0.26807234667350655
sg4
F-0.2637449487287111
sg5
F1.4933289935351277
sg6
F-0.2800277831753294
ss(I1
I4
tp65
(dp66
g3
F-0.3253139544146896
sg4
F7.783263012737319
sg5
F-0.298255403670851
sg6
F-0.3309606206722397
ss(I6
I0
tp67
(dp68
g3
I30
sg4
I30
sg5
I30
sg6
I30
ss(I2
I3
tp69
(dp70
g3
F-0.24630303519420516
sg4
F13.786847946410935
sg5
F-0.2574892184813445
sg6
F-0.24692436082188196
ss(I4
I2
tp71
(dp72
g3
I-1
sg4
I-1
sg5
I-1
sg6
I-1
ss(I1
I0
tp73
(dp74
g3
F-0.25010174479328123
sg4
F-0.2608708825067713
sg5
F-0.2526137788895421
sg6
F-0.2692141035978028
ss(I6
I5
tp75
(dp76
g3
F-0.24901313514474868
sg4
F-0.2411713213791366
sg5
F-0.25434324410382364
sg6
F-0.2431460051105514
ss(I3
I5
tp77
(dp78
g3
F-0.3203796614967665
sg4
F-0.3312600301850493
sg5
F-0.3310220875712762
sg6
F-0.34042019737564755
ss(I0
I1
tp79
(dp80
g3
F-0.29982034651213096
sg4
F-0.2924619749806441
sg5
F-0.2621071057256446
sg6
F-0.2919361684595944
ss(I4
I6
tp81
(dp82
g3
F-0.29256812262695503
sg4
F-0.29665100913411313
sg5
F-0.2900644807289578
sg6
F-0.3228804423033777
ss(I5
I2
tp83
(dp84
g3
F-0.07559062259908848
sg4
F-0.06657763159505294
sg5
F32.331485674207016
sg6
F-0.10006599834158927
ss(I6
I1
tp85
(dp86
g3
F0.026945387363466952
sg4
F0.027146652359009787
sg5
F53.98221582579408
sg6
F0.1
ss(I3
I1
tp87
(dp88
g3
F-0.13859193178748858
sg4
F27.40399999966218
sg5
F-0.10922319312887946
sg6
F-0.10780239345339435
ss(I0
I2
tp89
(dp90
g3
F-0.29139323990543387
sg4
F-0.29993149415507103
sg5
F-0.2943660655728974
sg6
F-0.2963861457540092
ss(I0
I6
tp91
(dp92
g3
F-0.399017574940363
sg4
F-0.3871182684592739
sg5
F4.181411018175383
sg6
F-0.4017446680414601
ss(I6
I2
tp93
(dp94
g3
F0.026790331138143008
sg4
F0.026842419344986778
sg5
F24.93353528999937
sg6
F-0.041757238140006786
ss(I4
I3
tp95
(dp96
g3
F-0.20064646781447182
sg4
F-0.1763139739037845
sg5
F-0.21005981590532738
sg6
F-0.18377822437884925
ss(I0
I5
tp97
(dp98
g3
F-0.39810441355864773
sg4
F-0.3606722924572539
sg5
F5.351862670968581
sg6
F-0.3681228411144831
ss(I3
I4
tp99
(dp100
g3
I-1
sg4
I-1
sg5
I-1
sg6
I-1
ss(I2
I4
tp101
(dp102
g3
F-0.3280799385380832
sg4
F-0.2862035066700849
sg5
F10.813586606702485
sg6
F-0.30807965686069805
ss.