(dp0
(I1
I3
tp1
(dp2
S'down'
p3
F3.1791971306876396
sS'right'
p4
F5.562080000000003
sS'up'
p5
F4.349616147330573
sS'left'
p6
F3.3777392790154774
ss(I3
I0
tp7
(dp8
S'down'
p9
I-1
sS'right'
p10
I-1
sS'up'
p11
I-1
sS'left'
p12
I-1
ss(I2
I1
tp13
(dp14
S'down'
p15
F8.971999999999998
sS'right'
p16
F11.340000000000002
sS'up'
p17
F7.0775999999999994
sS'left'
p18
F8.97199999999997
ss(I0
I3
tp19
(dp20
g15
F2.573277977864675
sg16
F4.349664000000002
sg17
F2.603784960000002
sg18
F3.3782074754697455
ss(I4
I0
tp21
(dp22
g15
I10
sg16
I10
sg17
I10
sg18
I10
ss(I1
I2
tp23
(dp24
g9
I-1
sg10
I-1
sg11
I-1
sg12
I-1
ss(I3
I3
tp25
(dp26
g15
F5.562079998581642
sg16
F5.5620770835167175
sg17
F8.972000000000001
sg18
F5.562079812925372
ss(I4
I4
tp27
(dp28
g15
F4.311250261754252
sg16
F4.309899187763021
sg17
F5.562078886628027
sg18
F5.329080824135073
ss(I2
I2
tp29
(dp30
g9
I-1
sg10
I-1
sg11
I-1
sg12
I-1
ss(I4
I1
tp31
(dp32
g15
F14.3
sg16
F14.299999999999823
sg17
F18.0
sg18
F11.339999999999984
ss(I1
I1
tp33
(dp34
g9
I-1
sg10
I-1
sg11
I-1
sg12
I-1
ss(I3
I2
tp35
(dp36
g15
F7.077599959967124
sg16
F8.971999970590204
sg17
F11.340000000000002
sg18
F8.971999999938424
ss(I0
I0
tp37
(dp38
g15
F3.379731200000002
sg16
F5.562080000000002
sg17
F4.349664000000001
sg18
F4.3496640000000015
ss(I0
I4
tp39
(dp40
g15
F2.310247025338364
sg16
F1.6127609645945822
sg17
F3.379731200000002
sg18
F1.4864223744000014
ss(I1
I4
tp41
(dp42
g3
F-0.9290644679304855
sg4
F4.349025636263529
sg5
F3.9459619070673426
sg6
F2.362450262084155
ss(I2
I3
tp43
(dp44
g15
F4.349663997396928
sg16
F7.077600000000002
sg17
F5.562074747694577
sg18
F4.348226395867863
ss(I4
I2
tp45
(dp46
g9
I-1
sg10
I-1
sg11
I-1
sg12
I-1
ss(I1
I0
tp47
(dp48
g15
F5.562080000000003
sg16
F7.077600000000002
sg17
F5.562080000000003
sg18
F4.3496640000000015
ss(I0
I1
tp49
(dp50
g15
F2.603784960000002
sg16
F3.379731200000002
sg17
F4.349664000000002
sg18
F3.3797312000000015
ss(I3
I1
tp51
(dp52
g15
F8.97199999840024
sg16
F14.3
sg17
F11.34
sg18
F8.97199999999945
ss(I0
I2
tp53
(dp54
g15
F3.162706566386708
sg16
F2.603784960000002
sg17
F3.379731200000002
sg18
F2.6037849600000014
ss(I2
I0
tp55
(dp56
g15
F8.972000000000001
sg16
F7.077600000000002
sg17
F7.077600000000001
sg18
F5.562080000000003
ss(I4
I3
tp57
(dp58
g15
F4.349279873212639
sg16
F5.561645668286214
sg17
F5.561754111197805
sg18
F7.077599987377729
ss(I3
I4
tp59
(dp60
g15
F5.561152636839061
sg16
F4.342805614478669
sg17
F7.0775999997098875
sg18
F4.349622665534438
ss(I2
I4
tp61
(dp62
g15
F4.349663993026878
sg16
F5.56205199476303
sg17
F5.5620799999999635
sg18
F3.360428448630552
ss.