(dp0
(I1
I3
tp1
(dp2
S'down'
p3
F3.379731199999993
sS'right'
p4
F5.562080000000003
sS'up'
p5
F4.349663987165778
sS'left'
p6
F3.3797311600778714
ss(I3
I0
tp7
(dp8
S'down'
p9
F11.209325196113824
sS'right'
p10
F18.0
sS'up'
p11
F14.3
sS'left'
p12
F11.338486134618257
ss(I2
I1
tp13
(dp14
S'down'
p15
F8.971999966505384
sS'right'
p16
F11.34
sS'up'
p17
F7.077600003643409
sS'left'
p18
F8.97199999918313
ss(I0
I3
tp19
(dp20
S'down'
p21
F2.603784959987831
sS'right'
p22
F4.349663999999957
sS'up'
p23
F3.14668468035618
sS'left'
p24
F3.379712727970009
ss(I4
I0
tp25
(dp26
g21
I10
sg22
I10
sg23
I10
sg24
I10
ss(I1
I2
tp27
(dp28
g3
F5.215099580930249
sg4
F6.994509766501265
sg5
F6.593853273454508
sg6
F4.481378487044006
ss(I3
I3
tp29
(dp30
g3
F5.562080000000002
sg4
F5.562080000000003
sg5
F8.972000000000003
sg6
F5.562080000000003
ss(I4
I4
tp31
(dp32
g21
F4.349664042057524
sg22
F4.349672071260526
sg23
F5.562080000000006
sg24
F5.5620798955753585
ss(I2
I2
tp33
(dp34
g3
F5.560536254363608
sg4
F8.972000000000001
sg5
F7.077599991150091
sg6
F7.076685982577103
ss(I4
I1
tp35
(dp36
g21
F14.299999965832594
sg22
F14.3
sg23
F18.0
sg24
F11.340000000000002
ss(I1
I1
tp37
(dp38
g3
F4.486627118979273
sg4
F8.830448165214907
sg5
F7.810513373050662
sg6
F3.1750601616070266
ss(I3
I2
tp39
(dp40
g21
F7.077600000000002
sg22
F8.972000000000001
sg23
F11.340000000000002
sg24
F8.972000000000003
ss(I0
I0
tp41
(dp42
g21
F4.1797397380607375
sg22
F5.562304081383367
sg23
F4.3662963239283625
sg24
F4.455965138637597
ss(I0
I4
tp43
(dp44
g21
F2.603784960000002
sg22
F3.379731200000002
sg23
F3.3797311999997985
sg24
F2.603784960000002
ss(I1
I4
tp45
(dp46
S'down'
p47
F3.379731200000002
sS'right'
p48
F4.349664000000002
sS'up'
p49
F4.349663999999978
sS'left'
p50
F2.603784960000002
ss(I2
I3
tp51
(dp52
g3
F4.3496640063718655
sg4
F7.077600000000002
sg5
F5.5620799999999635
sg6
F4.349664000000002
ss(I4
I2
tp53
(dp54
g9
F7.088154123245127
sg10
F10.439742956967155
sg11
F14.295051301612725
sg12
F8.971411190960833
ss(I1
I0
tp55
(dp56
g21
F5.569632604538787
sg22
F7.077602631627479
sg23
F5.563888675791507
sg24
F4.478932617937737
ss(I0
I1
tp57
(dp58
g21
F3.412774221356534
sg22
F3.6497373198777265
sg23
F4.379888267862652
sg24
F3.512353462496291
ss(I3
I1
tp59
(dp60
g3
F8.972000000000001
sg4
F14.3
sg5
F11.340000000000032
sg6
F8.972000000000001
ss(I2
I4
tp61
(dp62
g15
F4.349664000000002
sg16
F5.5620800000000035
sg17
F5.562080000000003
sg18
F3.379731200000002
ss(I2
I0
tp63
(dp64
g21
F8.972000000000177
sg22
F7.077670751234086
sg23
F7.08300172300885
sg24
F5.59011860416237
ss(I4
I3
tp65
(dp66
g21
F4.349664011902506
sg22
F5.562080004075158
sg23
F5.562080008971011
sg24
F7.077600000000002
ss(I3
I4
tp67
(dp68
g15
F5.562080000000003
sg16
F4.349664000003351
sg17
F7.077600000000003
sg18
F4.349664000000001
ss(I0
I2
tp69
(dp70
S'down'
p71
F3.3572814303748957
sS'right'
p72
F3.2094916592092217
sS'up'
p73
F4.037258643332934
sS'left'
p74
F3.224942587806165
ss.