(dp0
(I1
I3
tp1
(dp2
S'down'
p3
F3.2928083680550593
sS'right'
p4
F5.562080000000003
sS'up'
p5
F4.32379112367222
sS'left'
p6
F3.3164131736208233
ss(I3
I0
tp7
(dp8
S'down'
p9
I-1
sS'right'
p10
I-1
sS'up'
p11
I-1
sS'left'
p12
I-1
ss(I2
I1
tp13
(dp14
S'down'
p15
F8.971999999979234
sS'right'
p16
F11.340000000000002
sS'up'
p17
F7.07759999999867
sS'left'
p18
F8.971999999169515
ss(I0
I3
tp19
(dp20
g15
F2.603759287776664
sg16
F4.349664000000002
sg17
F2.603784960000002
sg18
F3.3592733412499856
ss(I4
I0
tp21
(dp22
g15
I10
sg16
I10
sg17
I10
sg18
I10
ss(I1
I2
tp23
(dp24
g9
I-1
sg10
I-1
sg11
I-1
sg12
I-1
ss(I3
I3
tp25
(dp26
g15
F5.56206449769743
sg16
F5.557531515859199
sg17
F8.972000000000003
sg18
F5.561574169227068
ss(I4
I4
tp27
(dp28
g15
F4.132448635714582
sg16
F3.9700243816550076
sg17
F5.54520565417325
sg18
F4.848242946029882
ss(I2
I2
tp29
(dp30
g9
I-1
sg10
I-1
sg11
I-1
sg12
I-1
ss(I4
I1
tp31
(dp32
g15
F14.3
sg16
F14.299999999861939
sg17
F18.0
sg18
F11.339999999997495
ss(I1
I1
tp33
(dp34
g9
I-1
sg10
I-1
sg11
I-1
sg12
I-1
ss(I3
I2
tp35
(dp36
g15
F7.077583537299896
sg16
F8.971977771116538
sg17
F11.340000000000003
sg18
F8.971999906175048
ss(I0
I0
tp37
(dp38
g15
F3.379731200000002
sg16
F5.562080000000002
sg17
F4.349664000000002
sg18
F4.349664000000002
ss(I0
I4
tp39
(dp40
g15
F2.603784960000002
sg16
F3.3797308945103133
sg17
F3.379731200000002
sg18
F2.603784960000002
ss(I1
I4
tp41
(dp42
g3
F3.379427681940555
sg4
F4.349663721936882
sg5
F4.345531494709642
sg6
F2.603356493343115
ss(I2
I3
tp43
(dp44
g15
F4.349495717171825
sg16
F7.077600000000002
sg17
F5.562053373481653
sg18
F4.349102591070638
ss(I4
I2
tp45
(dp46
g9
I-1
sg10
I-1
sg11
I-1
sg12
I-1
ss(I1
I0
tp47
(dp48
g15
F5.562080000000003
sg16
F7.077600000000002
sg17
F5.562080000000001
sg18
F4.349664000000002
ss(I0
I1
tp49
(dp50
g15
F2.603784960000002
sg16
F3.379731200000002
sg17
F4.349664000000002
sg18
F3.379731200000002
ss(I3
I1
tp51
(dp52
g15
F8.97199983647584
sg16
F14.3
sg17
F11.339999999999925
sg18
F8.971999999994473
ss(I2
I4
tp53
(dp54
g15
F4.349662788325076
sg16
F5.55596904266223
sg17
F5.562079791482358
sg18
F3.371928845839695
ss(I2
I0
tp55
(dp56
g15
F8.972000000000001
sg16
F7.077599999999974
sg17
F7.07759999999975
sg18
F5.562080000000002
ss(I4
I3
tp57
(dp58
g15
F4.0445001379713705
sg16
F5.231499679545637
sg17
F5.561754111197805
sg18
F7.077547752954184
ss(I3
I4
tp59
(dp60
g15
F5.550294754573296
sg16
F3.9771828819198247
sg17
F7.077599832985833
sg18
F4.328922297200016
ss(I0
I2
tp61
(dp62
g15
F3.323751401614924
sg16
F2.603784960000002
sg17
F3.379731200000002
sg18
F2.603784960000002
ss.