(dp0
(I7
I3
tp1
(dp2
S'down'
p3
F5.525504746126939
sS'right'
p4
F8.971999993325417
sS'up'
p5
F8.972000000000001
sS'left'
p6
F5.562084423965255
ss(I4
I7
tp7
(dp8
g3
F0.7994668341010542
sg4
F0.5151843264133843
sg5
F0.6205579274849624
sg6
F0.7813887804087303
ss(I1
I3
tp9
(dp10
S'down'
p11
F0.1528645035998626
sS'right'
p12
F1.2106133435184379
sS'up'
p13
F0.4538514459706112
sS'left'
p14
F0.1614580390803817
ss(I6
I6
tp15
(dp16
g3
F1.0948840664433417
sg4
F1.3446282423554425
sg5
F1.5668717335543119
sg6
F1.4810011050434828
ss(I3
I0
tp17
(dp18
g3
F7.715174684700486
sg4
F14.123440608095697
sg5
F1.04416259915159
sg6
F3.002417300872854
ss(I2
I8
tp19
(dp20
g3
F0.24011410912448233
sg4
F0.24734170481614345
sg5
F0.5045983463847089
sg6
F0.15069927486597265
ss(I8
I0
tp21
(dp22
g3
I10
sg4
I10
sg5
I10
sg6
I10
ss(I7
I8
tp23
(dp24
g3
F0.4108292663780876
sg4
F0.40709971549244106
sg5
F0.41261042942361204
sg6
F0.42279639428022053
ss(I7
I7
tp25
(dp26
g3
F0.5606618421463064
sg4
F0.7433795202623921
sg5
F2.8819529601219074
sg6
F0.5053064549913258
ss(I0
I7
tp27
(dp28
g3
F0.01757531752681911
sg4
F0.2938966169494955
sg5
F0.2020717629849949
sg6
F0.13610148689116228
ss(I6
I2
tp29
(dp30
g3
F4.9790429821989814
sg4
F8.972164567742233
sg5
F11.339999999960504
sg6
F11.0923756973966
ss(I1
I6
tp31
(dp32
g3
F1.331006365476097
sg4
F1.9737591131666017
sg5
F0.4633070172384594
sg6
F0.20578594568104921
ss(I5
I1
tp33
(dp34
g3
F11.339082436510473
sg4
F11.339999728329914
sg5
F18.0
sg6
F13.337720349197216
ss(I3
I7
tp35
(dp36
g3
F0.44966832506152504
sg4
F0.3197492848506459
sg5
F0.5128905623275409
sg6
F0.47953209872661895
ss(I0
I3
tp37
(dp38
g3
F0.6815267696070699
sg4
F0.5201436206761821
sg5
F0.8635542548185875
sg6
F0.7848985573796754
ss(I8
I5
tp39
(dp40
g3
F4.194267080067315
sg4
F5.550091172551824
sg5
F7.077577895147382
sg6
F5.294897024341343
ss(I2
I5
tp41
(dp42
S'down'
p43
F0.6254565800749499
sS'right'
p44
F0.9239433945269124
sS'up'
p45
F3.3767965648404883
sS'left'
p46
F0.489255613322857
ss(I5
I8
tp47
(dp48
g3
F1.2648179696001418
sg4
F0.5519628711212367
sg5
F1.2386170339825786
sg6
F0.7707868179329732
ss(I4
I0
tp49
(dp50
g3
F11.523628597727436
sg4
F18.0
sg5
F14.3
sg6
F10.756850350545255
ss(I1
I2
tp51
(dp52
g11
F0.5155345694593899
sg12
F1.2300896215066577
sg13
F0.8509313693420602
sg14
F0.6702351980726737
ss(I7
I4
tp53
(dp54
g3
F3.9568739333490095
sg4
F5.104401516626537
sg5
F7.071807121652256
sg6
F2.638559170336231
ss(I6
I7
tp55
(dp56
g3
F0.40017315315513763
sg4
F0.9516356006378665
sg5
F0.43637126062531595
sg6
F0.6416952305456463
ss(I3
I3
tp57
(dp58
g11
F2.0031275449999844
sg12
F7.077597155267573
sg13
F3.678609286036552
sg14
F5.447343661647039
ss(I2
I0
tp59
(dp60
g3
F0.5446894677310877
sg4
F8.999214800365742
sg5
F0.4453258982356424
sg6
F0.32785041560773776
ss(I8
I1
tp61
(dp62
g3
F11.339999999999996
sg4
F14.29999999999985
sg5
F18.0
sg6
F13.830213417246192
ss(I7
I6
tp63
(dp64
g3
F1.3283629381749824
sg4
F3.4154550992867736
sg5
F4.106313791029197
sg6
F1.448210640965601
ss(I4
I8
tp65
(dp66
g3
F0.7572084918292639
sg4
F1.0693168900741026
sg5
F0.72678556583865
sg6
F0.5211385564923886
ss(I4
I4
tp67
(dp68
g43
F2.3301430340169893
sg44
F6.655364774384962
sg45
F5.731008771908756
sg46
F2.1873188431068864
ss(I6
I3
tp69
(dp70
g3
F2.693603889380934
sg4
F2.2817229454133794
sg5
F8.751436963510605
sg6
F6.968059037977686
ss(I1
I5
tp71
(dp72
g3
F0.36732112479161894
sg4
F0.6992886428230377
sg5
F2.304726044045263
sg6
F0.47952612147029783
ss(I7
I2
tp73
(dp74
g3
F8.196879167794284
sg4
F11.34
sg5
F8.982233160452882
sg6
F7.0776000310319365
ss(I3
I6
tp75
(dp76
g3
F0.8440447769848227
sg4
F1.8733326733489795
sg5
F1.053910785849723
sg6
F0.7356630121246555
ss(I2
I2
tp77
(dp78
g11
F0.7761760123397368
sg12
F1.9813439371383017
sg13
F0.5599691049056049
sg14
F1.0941666268790908
ss(I8
I6
tp79
(dp80
g3
F2.1455761718337314
sg4
F0.8418097483760798
sg5
F5.550682567609146
sg6
F1.4517935319786603
ss(I5
I3
tp81
(dp82
g3
F7.024754323574139
sg4
F6.16269309912381
sg5
F11.339999999337461
sg6
F7.0774900670069165
ss(I4
I1
tp83
(dp84
g3
F8.969059955811291
sg4
F14.3
sg5
F14.3
sg6
F4.923991531113821
ss(I1
I1
tp85
(dp86
g11
F0.7306547626555595
sg12
F0.7147404023313371
sg13
F0.3158971495870182
sg14
F0.5703759636538415
ss(I6
I4
tp87
(dp88
g3
F2.1952457403574375
sg4
F4.490692816810119
sg5
F2.1920850306306368
sg6
F6.734035875072351
ss(I5
I6
tp89
(dp90
g3
F1.421967720228119
sg4
F1.7081141993821347
sg5
F4.215359451053032
sg6
F2.129193198003175
ss(I0
I0
tp91
(dp92
g3
F0.5050869414102023
sg4
F0.2906520544101497
sg5
F0.23668015597362674
sg6
F0.25860748336146455
ss(I3
I2
tp93
(dp94
g3
F1.6910782159011875
sg4
F7.915145244050821
sg5
F3.607087800694827
sg6
F1.6407487115474326
ss(I5
I0
tp95
(dp96
g3
I10
sg4
I10
sg5
I10
sg6
I10
ss(I2
I7
tp97
(dp98
g3
F0.2741427897567307
sg4
F0.3185815524242656
sg5
F0.769999274909152
sg6
F0.2794945271487341
ss(I7
I1
tp99
(dp100
g3
F8.97200125282399
sg4
F14.3
sg5
F14.299998920707267
sg6
F8.972000000071688
ss(I4
I5
tp101
(dp102
g43
F1.3552881742019316
sg44
F2.7748162103917333
sg45
F5.490985788223547
sg46
F3.088843093767562
ss(I0
I4
tp103
(dp104
g3
F0.40063380609231425
sg4
F2.304707207501429
sg5
F1.7186985869614944
sg6
F1.6912217629752253
ss(I5
I5
tp105
(dp106
g43
F2.012602077585597
sg44
F1.6214259432719313
sg45
F6.862815944818717
sg46
F2.299246819937249
ss(I1
I4
tp107
(dp108
g3
F1.73565451077743
sg4
F2.879351992640463
sg5
F2.2674310905108617
sg6
F1.7184527250267343
ss(I6
I0
tp109
(dp110
g3
F11.331538720399147
sg4
F11.616177060460895
sg5
F13.888282048738159
sg6
F17.985736611544418
ss(I7
I5
tp111
(dp112
g3
F2.2145768753480457
sg4
F5.556815705353302
sg5
F1.4920682710367048
sg6
F0.6940595227662959
ss(I2
I3
tp113
(dp114
g11
F1.0837608240529295
sg12
F2.94083037853651
sg13
F1.334125182710694
sg14
F0.308390331303103
ss(I2
I1
tp115
(dp116
g3
F0.725839109782404
sg4
F0.3929103869335034
sg5
F0.47747046229506224
sg6
F0.4998165886941016
ss(I8
I7
tp117
(dp118
g3
F0.8932156704232004
sg4
F2.2399201993027438
sg5
F3.3559948450633073
sg6
F0.6111642299565019
ss(I6
I8
tp119
(dp120
g3
F0.36407545364302163
sg4
F0.3290657175399915
sg5
F0.45511457020715795
sg6
F0.7939204058133909
ss(I5
I4
tp121
(dp122
g43
F2.867224328692828
sg44
F4.176212639847861
sg45
F8.970742246027928
sg46
F3.6939103059957055
ss(I4
I2
tp123
(dp124
g43
F6.575265912624431
sg44
F11.32378982961449
sg45
F6.120779869135415
sg46
F1.9731449111691304
ss(I1
I0
tp125
(dp126
g3
F0.2900772414114738
sg4
F0.40800207994984183
sg5
F0.40942724171061884
sg6
F0.23408349166325648
ss(I0
I8
tp127
(dp128
g3
F0.020664962864244338
sg4
F0.15091222493274936
sg5
F0.029099868807737045
sg6
F0.02040633426162008
ss(I5
I7
tp129
(dp130
g3
F0.6797052500739482
sg4
F0.42843382366144417
sg5
F0.5977268960366402
sg6
F0.6540910685247703
ss(I8
I2
tp131
(dp132
g3
F8.972
sg4
F11.339999999998625
sg5
F14.299999999999997
sg6
F8.983760737425325
ss(I6
I5
tp133
(dp134
g43
F1.17896722876567
sg44
F1.5798472286589988
sg45
F2.6426479274155894
sg46
F4.543867518113442
ss(I3
I5
tp135
(dp136
g43
F0.9830571243494555
sg44
F0.9720358885796025
sg45
F0.8729458905920469
sg46
F0.8962810601130867
ss(I0
I1
tp137
(dp138
g3
F0.376177347515673
sg4
F0.502581195799954
sg5
F0.26587522348683423
sg6
F0.5375469794047156
ss(I8
I3
tp139
(dp140
g3
F7.077355417105051
sg4
F8.971999999999639
sg5
F11.339999999999998
sg6
F8.691142712983348
ss(I7
I0
tp141
(dp142
g3
F11.339997497729017
sg4
F17.99999962714178
sg5
F14.294550231279825
sg6
F11.147230273685954
ss(I4
I6
tp143
(dp144
g3
F1.0699639809694124
sg4
F3.1135988353648463
sg5
F1.1926760895653112
sg6
F0.8954349915987514
ss(I5
I2
tp145
(dp146
g3
F8.971633222137712
sg4
F8.971728678658948
sg5
F14.299999999988684
sg6
F8.624841174293373
ss(I6
I1
tp147
(dp148
g3
F8.972090499824308
sg4
F11.339998760670833
sg5
F14.27503521972124
sg6
F14.299999999998908
ss(I3
I1
tp149
(dp150
g11
F1.4869446785587472
sg12
I-1
sg13
F0.2913802679107448
sg14
F0.48785678848812
ss(I2
I6
tp151
(dp152
g3
F0.7670234433691432
sg4
F1.2690230224454049
sg5
F2.6004791854070333
sg6
F1.3234803265375321
ss(I2
I4
tp153
(dp154
g3
F3.1105328460161505
sg4
F4.349201609487177
sg5
F2.1365665384612753
sg6
F1.756551069221857
ss(I3
I8
tp155
(dp156
g3
F0.28056635515281036
sg4
F0.4406211490501838
sg5
F0.3229826241913373
sg6
F0.35063207357840953
ss(I0
I6
tp157
(dp158
g3
F0.7712029098583654
sg4
F1.4681702555337863
sg5
F0.47525723871532677
sg6
F0.26715944941874437
ss(I1
I8
tp159
(dp160
g3
F0.15067237997033628
sg4
F0.2199961352181099
sg5
F0.3087241748944299
sg6
F0.01905296627165559
ss(I8
I8
tp161
(dp162
g3
F0.4389773804257096
sg4
F0.3749547580707139
sg5
F2.1470256777112393
sg6
F0.318667693583344
ss(I4
I3
tp163
(dp164
g3
F3.8114903777308693
sg4
F8.971999949133645
sg5
F8.15708376940222
sg6
F5.555337608836685
ss(I1
I7
tp165
(dp166
g3
F0.13174695314531554
sg4
F0.5011228677114493
sg5
F0.5097119001137393
sg6
F0.15060136148913514
ss(I0
I5
tp167
(dp168
g3
F1.0579047954473928
sg4
F0.614437702367247
sg5
F0.41368639086175063
sg6
F0.4391087112963637
ss(I3
I4
tp169
(dp170
g43
F3.3189157446119353
sg44
F3.32547336971904
sg45
F5.562030688581004
sg46
F3.0276278190499903
ss(I0
I2
tp171
(dp172
g3
F0.7771329123252664
sg4
F1.3128933304689796
sg5
F0.4564877546556051
sg6
F0.6187371059241443
ss(I8
I4
tp173
(dp174
g3
F5.53072951595427
sg4
F7.0764361228647115
sg5
F8.971998540955221
sg6
F6.779062357704273
ss.