(dp0
(I7
I3
tp1
(dp2
S'down'
p3
F5.525504746126939
sS'right'
p4
F8.971999993325417
sS'up'
p5
F8.972000000000001
sS'left'
p6
F5.562084423965255
ss(I4
I7
tp7
(dp8
g3
F0.7994668341010542
sg4
F0.5151843264133843
sg5
F0.6205579274849624
sg6
F0.7813887804087303
ss(I1
I3
tp9
(dp10
S'down'
p11
F2.7589928173012246
sS'right'
p12
F2.9910299170663093
sS'up'
p13
F4.229366086197036
sS'left'
p14
F4.168230985062405
ss(I2
I6
tp15
(dp16
g3
F0.2802602416129946
sg4
F0.22348729175107895
sg5
F0.263401903191136
sg6
F1.4967810675093955
ss(I6
I6
tp17
(dp18
g3
F0.4741437001438035
sg4
F0.47870840253331204
sg5
F0.4683423301960137
sg6
F0.5217356570652677
ss(I3
I0
tp19
(dp20
g3
F12.965461818313463
sg4
F12.954157950027515
sg5
F12.468039148071385
sg6
F13.78969807005235
ss(I2
I8
tp21
(dp22
g3
F0.24011410912448233
sg4
F0.24734170481614345
sg5
F0.5045983463847089
sg6
F0.15069927486597265
ss(I8
I0
tp23
(dp24
g3
I10
sg4
I10
sg5
I10
sg6
I10
ss(I7
I8
tp25
(dp26
g3
F0.4108292663780876
sg4
F0.40709971549244106
sg5
F0.41261042942361204
sg6
F0.42279639428022053
ss(I7
I7
tp27
(dp28
g3
F0.5606618421463064
sg4
F0.7433795202623921
sg5
F2.8819529601219074
sg6
F0.5053064549913258
ss(I0
I7
tp29
(dp30
g3
F0.01757531752681911
sg4
F0.2938966169494955
sg5
F0.2020717629849949
sg6
F0.13610148689116228
ss(I6
I2
tp31
(dp32
g3
F34.374532102397815
sg4
F34.37999999476587
sg5
F43.1
sg6
F27.15369331139387
ss(I1
I6
tp33
(dp34
g3
F1.4683778088589459
sg4
F0.12653312913212217
sg5
F2.0819010313376705
sg6
F1.8661389622364581
ss(I5
I1
tp35
(dp36
g3
F27.102603440153032
sg4
F43.1
sg5
F34.74224940339439
sg6
F27.404000000000003
ss(I3
I7
tp37
(dp38
g3
F0.44966832506152504
sg4
F0.3197492848506459
sg5
F0.5128905623275409
sg6
F0.47953209872661895
ss(I0
I3
tp39
(dp40
g3
F3.2351543177112934
sg4
F3.2471157344238297
sg5
F5.351921975833731
sg6
F4.195892221209899
ss(I8
I5
tp41
(dp42
g3
F4.194267080067315
sg4
F5.550091172551824
sg5
F7.077577895147382
sg6
F5.294897024341343
ss(I2
I5
tp43
(dp44
S'down'
p45
F0.23462511662352992
sS'right'
p46
F1.3256419306566265
sS'up'
p47
F2.5402969818069976
sS'left'
p48
F0.07666552693006207
ss(I5
I8
tp49
(dp50
g3
F1.2648179696001418
sg4
F0.5519628711212367
sg5
F1.2386170339825786
sg6
F0.7707868179329732
ss(I4
I0
tp51
(dp52
g3
F27.404000000000003
sg4
F21.840355738868233
sg5
F21.824535606053637
sg6
F17.463912399674705
ss(I1
I2
tp53
(dp54
g11
F3.2851029190601913
sg12
F4.22430064875589
sg13
F4.220047798005273
sg14
F5.3556943841937485
ss(I7
I4
tp55
(dp56
g3
F3.9568739333490095
sg4
F5.104401516626537
sg5
F7.071807121652256
sg6
F2.638559170336231
ss(I6
I7
tp57
(dp58
g3
F0.40017315315513763
sg4
F0.9516356006378665
sg5
F0.43637126062531595
sg6
F0.6416952305456463
ss(I3
I3
tp59
(dp60
S'down'
p61
F1.3060365604803836
sS'right'
p62
I-1
sS'up'
p63
I-1
sS'left'
p64
I-1
ss(I2
I0
tp65
(dp66
g3
F17.358559999989918
sg4
F12.575804452540709
sg5
F13.801514094674832
sg6
F11.271163715733165
ss(I8
I1
tp67
(dp68
g3
F11.339999999999996
sg4
F14.29999999999985
sg5
F18.0
sg6
F13.830213417246192
ss(I7
I6
tp69
(dp70
g3
F1.3283629381749824
sg4
F3.4154550992867736
sg5
F4.106313791029197
sg6
F1.448210640965601
ss(I4
I8
tp71
(dp72
g3
F0.7572084918292639
sg4
F1.0693168900741026
sg5
F0.72678556583865
sg6
F0.5211385564923886
ss(I4
I4
tp73
(dp74
S'down'
p75
F0.8805410086874501
sS'right'
p76
F0.5340051139969277
sS'up'
p77
F0.6179023053870568
sS'left'
p78
F1.706685181104731
ss(I6
I3
tp79
(dp80
g61
I-1
sg62
I-1
sg63
I-1
sg64
I-1
ss(I1
I5
tp81
(dp82
g3
F1.5903364525439767
sg4
F0.22083171511799732
sg5
F2.528518078469585
sg6
F2.499358388810169
ss(I7
I2
tp83
(dp84
g3
F8.196879167794284
sg4
F11.34
sg5
F8.982233160452882
sg6
F7.0776000310319365
ss(I3
I6
tp85
(dp86
g3
F0.3362030074422561
sg4
F0.3526921514845423
sg5
F0.37583121123996027
sg6
F0.2399065852903614
ss(I2
I2
tp87
(dp88
g61
F1.5603151090753151
sg62
I-1
sg63
I-1
sg64
I-1
ss(I8
I6
tp89
(dp90
g3
F2.1455761718337314
sg4
F0.8418097483760798
sg5
F5.550682567609146
sg6
F1.4517935319786603
ss(I5
I3
tp91
(dp92
g61
F7.111115591996998
sg62
I-1
sg63
F22.722376233126056
sg64
F7.091377450133047
ss(I4
I1
tp93
(dp94
g3
F11.777522495970228
sg4
F34.38
sg5
F25.200698864480913
sg6
F21.82320000055877
ss(I1
I1
tp95
(dp96
g61
I-1
sg62
I-1
sg63
I-1
sg64
I-1
ss(I6
I4
tp97
(dp98
g3
F0.7877330799850115
sg4
F0.8503342729013131
sg5
F0.7035445167752716
sg6
F0.4596858092298427
ss(I5
I6
tp99
(dp100
g3
F0.3560258923082548
sg4
F0.4253224884357061
sg5
F0.5493906459960509
sg6
F0.3336268672037007
ss(I0
I0
tp101
(dp102
g3
F6.8159780772491665
sg4
F10.92947846550162
sg5
F8.643772724868594
sg6
F8.641956849392201
ss(I3
I2
tp103
(dp104
g3
F6.690660695636909
sg4
F6.90258094805582
sg5
F21.697229150463116
sg6
F14.766330019937705
ss(I5
I0
tp105
(dp106
g61
I-1
sg62
I-1
sg63
I-1
sg64
I-1
ss(I2
I7
tp107
(dp108
g3
F0.2741427897567307
sg4
F0.3185815524242656
sg5
F0.769999274909152
sg6
F0.2794945271487341
ss(I7
I1
tp109
(dp110
g3
F8.97200125282399
sg4
F14.3
sg5
F14.299998920707267
sg6
F8.972000000071688
ss(I4
I5
tp111
(dp112
g45
F0.3120992765999709
sg46
F0.5745888485992585
sg47
F1.2572869321547602
sg48
F1.252826816419865
ss(I0
I4
tp113
(dp114
g3
F2.5478618195799125
sg4
F2.6881980521584365
sg5
F4.181625062901691
sg6
F3.2453161716027727
ss(I5
I5
tp115
(dp116
g45
F0.3869423763737756
sg46
F0.49860659661520246
sg47
F0.45473874511179785
sg48
F0.8227982209210064
ss(I1
I4
tp117
(dp118
g3
F2.117782888851584
sg4
F2.817442876457684
sg5
F3.2518102751850355
sg6
F3.221145502725421
ss(I6
I0
tp119
(dp120
g3
I30
sg4
I30
sg5
I30
sg6
I30
ss(I7
I5
tp121
(dp122
g3
F2.2145768753480457
sg4
F5.556815705353302
sg5
F1.4920682710367048
sg6
F0.6940595227662959
ss(I2
I3
tp123
(dp124
g11
F1.8652163682474825
sg12
F0.1754090972324439
sg13
F1.7279205860655131
sg14
F1.8896052808792816
ss(I2
I1
tp125
(dp126
g3
F4.070379051694778
sg4
F15.761787144658843
sg5
F14.093151888255742
sg6
F17.34576967197023
ss(I8
I7
tp127
(dp128
g3
F0.8932156704232004
sg4
F2.2399201993027438
sg5
F3.3559948450633073
sg6
F0.6111642299565019
ss(I6
I8
tp129
(dp130
g3
F0.36407545364302163
sg4
F0.3290657175399915
sg5
F0.45511457020715795
sg6
F0.7939204058133909
ss(I5
I4
tp131
(dp132
g45
F0.509070926283327
sg46
F0.5890773672361211
sg47
F0.4657379292213806
sg48
F0.6823509549582729
ss(I4
I2
tp133
(dp134
g61
F7.212241357912085
sg62
F22.77209277201274
sg63
F15.975659647630376
sg64
F-0.8410372605667018
ss(I1
I0
tp135
(dp136
g3
F10.92948374144079
sg4
F13.786848010718552
sg5
F10.930127721939892
sg6
F8.64483062731508
ss(I0
I8
tp137
(dp138
g3
F0.020664962864244338
sg4
F0.15091222493274936
sg5
F0.029099868807737045
sg6
F0.02040633426162008
ss(I5
I7
tp139
(dp140
g3
F0.6797052500739482
sg4
F0.42843382366144417
sg5
F0.5977268960366402
sg6
F0.6540910685247703
ss(I6
I5
tp141
(dp142
g45
F0.5256541342683404
sg46
F0.624714912284663
sg47
F0.6455518238281146
sg48
F0.49296470586614216
ss(I3
I5
tp143
(dp144
g45
F0.311643869081563
sg46
F0.4458588694015439
sg47
F2.194855296338277
sg48
F0.2384233982724651
ss(I0
I1
tp145
(dp146
g3
F5.353528206131788
sg4
F6.81537920188829
sg5
F8.643583511950942
sg6
F6.8165800540614425
ss(I8
I3
tp147
(dp148
g3
F7.077355417105051
sg4
F8.971999999999639
sg5
F11.339999999999998
sg6
F8.691142712983348
ss(I7
I0
tp149
(dp150
g3
F11.339997497729017
sg4
F17.99999962714178
sg5
F14.294550231279825
sg6
F11.147230273685954
ss(I4
I6
tp151
(dp152
g3
F0.29927476442589585
sg4
F0.3739917004209292
sg5
F0.7360973174798179
sg6
F0.4850381526889175
ss(I5
I2
tp153
(dp154
g3
F11.398903674751473
sg4
F34.37066924853396
sg5
F33.97925910483305
sg6
F17.605846925161206
ss(I6
I1
tp155
(dp156
g3
F34.380225772746115
sg4
F43.1
sg5
F54.0
sg6
F34.38
ss(I3
I1
tp157
(dp158
g11
F16.477270996753255
sg12
F27.404000000000003
sg13
F17.399603711940326
sg14
F17.314141853895457
ss(I8
I2
tp159
(dp160
g3
F8.972
sg4
F11.339999999998625
sg5
F14.299999999999997
sg6
F8.983760737425325
ss(I2
I4
tp161
(dp162
g75
F1.5412079651129158
sg76
F1.8815445556662733
sg77
F1.8118657433967786
sg78
F1.5926550775196664
ss(I3
I8
tp163
(dp164
g3
F0.28056635515281036
sg4
F0.4406211490501838
sg5
F0.3229826241913373
sg6
F0.35063207357840953
ss(I0
I6
tp165
(dp166
g3
F1.9298249087844896
sg4
F1.5655208250701365
sg5
F2.4972000404155206
sg6
F1.8969349312441395
ss(I1
I8
tp167
(dp168
g3
F0.15067237997033628
sg4
F0.2199961352181099
sg5
F0.3087241748944299
sg6
F0.01905296627165559
ss(I8
I8
tp169
(dp170
g3
F0.4389773804257096
sg4
F0.3749547580707139
sg5
F2.1470256777112393
sg6
F0.318667693583344
ss(I4
I3
tp171
(dp172
g3
F1.1615965817722018
sg4
F0.6279937763857278
sg5
F0.6375953132651031
sg6
F0.5641569177079538
ss(I1
I7
tp173
(dp174
g3
F0.13174695314531554
sg4
F0.5011228677114493
sg5
F0.5097119001137393
sg6
F0.15060136148913514
ss(I0
I5
tp175
(dp176
g3
F1.89768788825666
sg4
F2.4400957065220807
sg5
F3.2455605177788485
sg6
F0.7949740012362397
ss(I3
I4
tp177
(dp178
g45
F1.48137690699272
sg46
F1.157425456325367
sg47
F1.6956764196158225
sg48
F2.4288634434047203
ss(I0
I2
tp179
(dp180
g3
F4.263591032788552
sg4
F5.113536561489199
sg5
F6.814872016295757
sg6
F5.354382092084016
ss(I8
I4
tp181
(dp182
g3
F5.53072951595427
sg4
F7.0764361228647115
sg5
F8.971998540955221
sg6
F6.779062357704273
ss.