(dp0
(I7
I3
tp1
(dp2
S'down'
p3
F5.525504746126939
sS'right'
p4
F8.971999993325417
sS'up'
p5
F8.972000000000001
sS'left'
p6
F5.562084423965255
ss(I4
I7
tp7
(dp8
g3
F0.7994668341010542
sg4
F0.5151843264133843
sg5
F0.6205579274849624
sg6
F0.7813887804087303
ss(I1
I3
tp9
(dp10
S'down'
p11
F3.37243497222466
sS'right'
p12
F3.7243750361516295
sS'up'
p13
F4.182530917010644
sS'left'
p14
F4.187006200828899
ss(I6
I6
tp15
(dp16
g3
F0.4741437001438035
sg4
F0.47870840253331204
sg5
F0.5876834386512522
sg6
F0.5217356570652677
ss(I3
I0
tp17
(dp18
g3
F21.823200017963746
sg4
F21.823200035417685
sg5
F18.748907047129922
sg6
F14.067594568543832
ss(I2
I8
tp19
(dp20
g3
F0.24011410912448233
sg4
F0.24734170481614345
sg5
F0.5045983463847089
sg6
F0.15069927486597265
ss(I8
I0
tp21
(dp22
g3
I10
sg4
I10
sg5
I10
sg6
I10
ss(I7
I7
tp23
(dp24
g3
F0.5606618421463064
sg4
F0.7433795202623921
sg5
F2.8819529601219074
sg6
F0.5053064549913258
ss(I0
I7
tp25
(dp26
g3
F0.01757531752681911
sg4
F0.2938966169494955
sg5
F0.2020717629849949
sg6
F0.13610148689116228
ss(I4
I6
tp27
(dp28
g3
F0.3141585603835929
sg4
F0.3739917004209292
sg5
F0.49072688640466866
sg6
F0.4850381526889175
ss(I0
I1
tp29
(dp30
g3
F5.3522108769474634
sg4
F6.816650450264178
sg5
F8.59950224380546
sg6
F6.815009710042591
ss(I6
I2
tp31
(dp32
g3
F34.36382987254414
sg4
F34.37999998447172
sg5
F43.1
sg6
F27.15369331139387
ss(I1
I6
tp33
(dp34
g3
F0.11491076437758374
sg4
F0.14317416499506605
sg5
F0.06312432133094655
sg6
F-0.03158639746487251
ss(I5
I1
tp35
(dp36
g3
F26.558203263745717
sg4
F43.1
sg5
F42.7974599407851
sg6
F27.404000000000003
ss(I3
I7
tp37
(dp38
g3
F0.44966832506152504
sg4
F0.3197492848506459
sg5
F0.5128905623275409
sg6
F0.47953209872661895
ss(I0
I3
tp39
(dp40
g3
F3.3455628118014507
sg4
F3.2715944603931337
sg5
F5.351893363014666
sg6
F4.258107429132594
ss(I8
I5
tp41
(dp42
g3
F4.194267080067315
sg4
F5.550091172551824
sg5
F7.077577895147382
sg6
F5.294897024341343
ss(I2
I5
tp43
(dp44
S'down'
p45
F0.23462511662352992
sS'right'
p46
F0.44981858676746656
sS'up'
p47
F2.5402969818069976
sS'left'
p48
F0.07666552693006207
ss(I5
I8
tp49
(dp50
g3
F1.2648179696001418
sg4
F0.5519628711212367
sg5
F1.2386170339825786
sg6
F0.7707868179329732
ss(I4
I0
tp51
(dp52
g3
F27.404000000018133
sg4
F36.10631819182571
sg5
F21.87822328940446
sg6
F25.103147250515065
ss(I1
I2
tp53
(dp54
g11
F3.328381210366049
sg12
F4.19582477200713
sg13
F4.184556233205844
sg14
F5.352029398532798
ss(I3
I8
tp55
(dp56
g3
F0.28056635515281036
sg4
F0.4406211490501838
sg5
F0.3229826241913373
sg6
F0.35063207357840953
ss(I3
I1
tp57
(dp58
g11
F16.477270996753255
sg12
F27.404000000000003
sg13
F17.3678252878002
sg14
F17.198815483200104
ss(I6
I7
tp59
(dp60
g3
F0.40017315315513763
sg4
F0.9516356006378665
sg5
F0.43637126062531595
sg6
F0.6416952305456463
ss(I3
I3
tp61
(dp62
S'down'
p63
F3.0505419693667415
sS'right'
p64
F4.180648914086871
sS'up'
p65
F14.209367167894563
sS'left'
p66
F3.1657236963468485
ss(I0
I6
tp67
(dp68
g3
F2.4008965328188947
sg4
F0.10389033021699032
sg5
F2.496183620997103
sg6
F1.8969904174333285
ss(I8
I1
tp69
(dp70
g3
F11.339999999999996
sg4
F14.29999999999985
sg5
F18.0
sg6
F13.830213417246192
ss(I7
I6
tp71
(dp72
g3
F1.3283629381749824
sg4
F3.4154550992867736
sg5
F4.106313791029197
sg6
F1.448210640965601
ss(I4
I8
tp73
(dp74
g3
F0.7572084918292639
sg4
F1.0693168900741026
sg5
F0.72678556583865
sg6
F0.5211385564923886
ss(I4
I4
tp75
(dp76
S'down'
p77
F0.8067182279572616
sS'right'
p78
F0.7264940712052905
sS'up'
p79
F0.5411621551670938
sS'left'
p80
F1.706685181104731
ss(I6
I3
tp81
(dp82
g63
F3.776350323823068
sg64
F4.710208162268206
sg65
F4.821473243835602
sg66
F5.925691891283957
ss(I1
I5
tp83
(dp84
g3
F0.013764559752846661
sg4
F0.22083171511799732
sg5
F3.2843242447798957
sg6
F2.592906952940096
ss(I7
I2
tp85
(dp86
g3
F8.196879167794284
sg4
F11.34
sg5
F8.982233160452882
sg6
F7.0776000310319365
ss(I3
I6
tp87
(dp88
g3
F0.3362030074422561
sg4
F0.3526921514845423
sg5
F0.37583121123996027
sg6
F0.2399065852903614
ss(I2
I2
tp89
(dp90
g63
F11.748523244376635
sg64
F9.706126743424221
sg65
F14.965052071141116
sg66
F4.313311648915008
ss(I3
I4
tp91
(dp92
g45
F1.1692266146155825
sg46
F0.8104288362955474
sg47
F1.6956764196158225
sg48
F2.771500143989649
ss(I8
I6
tp93
(dp94
g3
F2.1455761718337314
sg4
F0.8418097483760798
sg5
F5.550682567609146
sg6
F1.4517935319786603
ss(I3
I5
tp95
(dp96
g45
F0.311643869081563
sg46
F0.4458588694015439
sg47
F1.7276357666072941
sg48
F0.2384233982724651
ss(I4
I1
tp97
(dp98
g3
F27.40399999888723
sg4
F34.38
sg5
F21.828504910931876
sg6
F21.823200022846223
ss(I1
I1
tp99
(dp100
g63
F6.272579781777059
sg64
F14.120570134398339
sg65
F10.604708671367366
sg66
F8.084569790617849
ss(I6
I4
tp101
(dp102
g3
F0.7877330799850115
sg4
F0.8503342729013131
sg5
F0.7035445167752716
sg6
F0.6440425791608395
ss(I5
I6
tp103
(dp104
g3
F0.3872857412887939
sg4
F0.5533496252623241
sg5
F0.5493906459960509
sg6
F0.3336268672037007
ss(I0
I0
tp105
(dp106
g3
F6.837780300953811
sg4
F10.87940453994432
sg5
F8.650857934185089
sg6
F8.609270051452562
ss(I3
I2
tp107
(dp108
g3
F6.690660695636909
sg4
F6.90258094805582
sg5
F21.697229150463116
sg6
F14.766330019937705
ss(I5
I0
tp109
(dp110
g63
F37.08982762084713
sg64
F53.999999999996845
sg65
F43.099903852421
sg66
F27.83231252540228
ss(I7
I1
tp111
(dp112
g3
F8.97200125282399
sg4
F14.3
sg5
F14.299998920707267
sg6
F8.972000000071688
ss(I4
I5
tp113
(dp114
g45
F0.35584877154391453
sg46
F0.7299421620336151
sg47
F0.93613339854471
sg48
F0.4371712594800974
ss(I0
I4
tp115
(dp116
g3
F2.5478618195799125
sg4
F3.254815125137501
sg5
F4.181516001374101
sg6
F3.2452646593129284
ss(I5
I5
tp117
(dp118
g45
F0.4916284980200284
sg46
F0.5998581417045872
sg47
F0.5529770611611807
sg48
F0.5600449271710235
ss(I1
I4
tp119
(dp120
g3
F2.5311933786688643
sg4
F0.17239997379494207
sg5
F3.5056844488979846
sg6
F3.15903140327989
ss(I6
I0
tp121
(dp122
g3
I30
sg4
I30
sg5
I30
sg6
I30
ss(I7
I5
tp123
(dp124
g3
F2.2145768753480457
sg4
F5.556815705353302
sg5
F1.4920682710367048
sg6
F0.6940595227662959
ss(I2
I3
tp125
(dp126
g11
F1.3802738565338006
sg12
F2.9301194708890828
sg13
F1.7279205860655131
sg14
F3.6570345635125365
ss(I2
I1
tp127
(dp128
g3
F16.440237771482707
sg4
F21.822872870291683
sg5
F13.692452843029397
sg6
F17.236754893469328
ss(I8
I7
tp129
(dp130
g3
F0.8932156704232004
sg4
F2.2399201993027438
sg5
F3.3559948450633073
sg6
F0.6111642299565019
ss(I5
I4
tp131
(dp132
g45
F0.6652728297800097
sg46
F0.7118676282551912
sg47
F0.6825728794228787
sg48
F0.6823509549582729
ss(I4
I2
tp133
(dp134
g63
F4.686638738952167
sg64
F5.639627168985272
sg65
F7.091099339521168
sg66
F8.86703180159775
ss(I1
I0
tp135
(dp136
g3
F10.929483723135077
sg4
F13.766869435675577
sg5
F10.930127721939892
sg6
F8.733692721989577
ss(I0
I8
tp137
(dp138
g3
F0.020664962864244338
sg4
F0.15091222493274936
sg5
F0.029099868807737045
sg6
F0.02040633426162008
ss(I8
I2
tp139
(dp140
g3
F8.972
sg4
F11.339999999998625
sg5
F14.299999999999997
sg6
F8.983760737425325
ss(I6
I5
tp141
(dp142
g45
F0.5256541342683404
sg46
F0.624714912284663
sg47
F0.6455518238281146
sg48
F0.7009093769238643
ss(I5
I3
tp143
(dp144
g63
F1.4542787334286462
sg64
F5.045862012713187
sg65
F7.259811631475765
sg66
F4.636196634951719
ss(I2
I7
tp145
(dp146
g3
F0.2741427897567307
sg4
F0.3185815524242656
sg5
F0.769999274909152
sg6
F0.2794945271487341
ss(I8
I3
tp147
(dp148
g3
F7.077355417105051
sg4
F8.971999999999639
sg5
F11.339999999999998
sg6
F8.691142712983348
ss(I7
I0
tp149
(dp150
g3
F11.339997497729017
sg4
F17.99999962714178
sg5
F14.294550231279825
sg6
F11.147230273685954
ss(I6
I8
tp151
(dp152
g3
F0.36407545364302163
sg4
F0.3290657175399915
sg5
F0.45511457020715795
sg6
F0.7939204058133909
ss(I5
I2
tp153
(dp154
g3
F25.100867418323325
sg4
F34.352576458672296
sg5
F33.39462427095155
sg6
F24.890583142574158
ss(I6
I1
tp155
(dp156
g3
F34.381975023857194
sg4
F43.099999999999895
sg5
F54.0
sg6
F34.38
ss(I5
I7
tp157
(dp158
g3
F0.6797052500739482
sg4
F0.42843382366144417
sg5
F0.5977268960366402
sg6
F0.6540910685247703
ss(I2
I6
tp159
(dp160
g3
F0.2802602416129946
sg4
F0.22348729175107895
sg5
F0.263401903191136
sg6
F0.28167343046006
ss(I0
I2
tp161
(dp162
g3
F4.210880770488742
sg4
F4.264100731931585
sg5
F6.784844243849358
sg6
F5.374857941722361
ss(I7
I4
tp163
(dp164
g3
F3.9568739333490095
sg4
F5.104401516626537
sg5
F7.071807121652256
sg6
F2.638559170336231
ss(I2
I0
tp165
(dp166
g3
F17.354760878882903
sg4
F14.097201497429253
sg5
F13.787558602237945
sg6
F10.940163766554
ss(I1
I8
tp167
(dp168
g3
F0.15067237997033628
sg4
F0.2199961352181099
sg5
F0.3087241748944299
sg6
F0.01905296627165559
ss(I8
I8
tp169
(dp170
g3
F0.4389773804257096
sg4
F0.3749547580707139
sg5
F2.1470256777112393
sg6
F0.318667693583344
ss(I4
I3
tp171
(dp172
g3
F0.942124946318658
sg4
F0.5732573849295274
sg5
F0.6375953132651031
sg6
F0.5641569177079538
ss(I1
I7
tp173
(dp174
g3
F0.13174695314531554
sg4
F0.5011228677114493
sg5
F0.5097119001137393
sg6
F0.15060136148913514
ss(I0
I5
tp175
(dp176
g3
F1.9894419093323812
sg4
F2.3132395226351337
sg5
F3.2452151227003663
sg6
F0.7949740012362397
ss(I7
I8
tp177
(dp178
g3
F0.4108292663780876
sg4
F0.40709971549244106
sg5
F0.41261042942361204
sg6
F0.42279639428022053
ss(I2
I4
tp179
(dp180
g77
F0.1550148745097734
sg78
F0.6806368462657814
sg79
F3.758605080191218
sg80
F3.0649315993289994
ss(I8
I4
tp181
(dp182
g3
F5.53072951595427
sg4
F7.0764361228647115
sg5
F8.971998540955221
sg6
F6.779062357704273
ss.