(dp0
(I1
I3
tp1
(dp2
S'down'
p3
I-1
sS'right'
p4
I-1
sS'up'
p5
I-1
sS'left'
p6
I-1
ss(I3
I0
tp7
(dp8
g3
F14.2682793986035
sg4
F18.0
sg5
F14.299964626092574
sg6
F11.339999982083768
ss(I2
I1
tp9
(dp10
g3
F8.864014753673906
sg4
F11.33999986174219
sg5
F7.05425069318783
sg6
F8.969535643710802
ss(I0
I3
tp11
(dp12
g3
F1.2137889074484791
sg4
F1.8724436066622325
sg5
F2.599951083313293
sg6
F1.8725099634153124
ss(I4
I0
tp13
(dp14
g3
I10
sg4
I10
sg5
I10
sg6
I10
ss(I1
I2
tp15
(dp16
g3
I-1
sg4
I-1
sg5
I-1
sg6
I-1
ss(I3
I3
tp17
(dp18
g3
F4.694108763086523
sg4
I-1
sg5
I-1
sg6
I-1
ss(I4
I4
tp19
(dp20
g3
F-0.11518553203015079
sg4
F4.961092229735807
sg5
F8.858769014566658
sg6
F1.5015366941582473
ss(I2
I2
tp21
(dp22
g3
I-1
sg4
I-1
sg5
I-1
sg6
I-1
ss(I4
I1
tp23
(dp24
g3
F14.085399761293758
sg4
F14.295441685871047
sg5
F17.999999999992728
sg6
F11.382779685563914
ss(I1
I1
tp25
(dp26
g3
I-1
sg4
I-1
sg5
I-1
sg6
I-1
ss(I3
I2
tp27
(dp28
g3
F-0.6926099938881196
sg4
F3.034110864708118
sg5
F11.28890291823295
sg6
F6.947514981610611
ss(I0
I0
tp29
(dp30
g3
F1.3456120341492444
sg4
F5.561991333525358
sg5
F4.3306735868971
sg6
F2.614262282768956
ss(I0
I4
tp31
(dp32
g3
F1.1424300000327428
sg4
F1.2425633779653804
sg5
F1.970043415337912
sg6
F1.1652477026491859
ss(I1
I4
tp33
(dp34
g3
F0.5845214134423304
sg4
F2.5327996275524045
sg5
F1.4020166376859862
sg6
F2.6037800985700996
ss(I2
I3
tp35
(dp36
g3
F3.4168049605874646
sg4
I-1
sg5
I-1
sg6
F1.008340199533153
ss(I4
I2
tp37
(dp38
g3
F6.699011507179112
sg4
F9.683817790190174
sg5
F14.297531492108803
sg6
F-0.15490671742575277
ss(I1
I0
tp39
(dp40
g3
F5.256811675356976
sg4
F7.0775876822020205
sg5
F5.53450741771322
sg6
F3.3621678424971004
ss(I0
I1
tp41
(dp42
g3
F2.3150282928996044
sg4
F0.9698906234329633
sg5
F4.349228664876479
sg6
F1.0471068833359878
ss(I3
I1
tp43
(dp44
g3
F8.82046675840473
sg4
F14.299999973716133
sg5
F11.33976711265915
sg6
F8.822485346614767
ss(I2
I4
tp45
(dp46
g3
F-0.24299378820116727
sg4
F4.950310238725445
sg5
F1.0592623780903259
sg6
F1.4808573413213304
ss(I2
I0
tp47
(dp48
g3
F8.971999046509834
sg4
F6.865745543548479
sg5
F7.013776104207365
sg6
F5.169204698697465
ss(I4
I3
tp49
(dp50
g3
F-0.11520082045737896
sg4
F-0.08131342243005887
sg5
F11.325474557667208
sg6
F8.727998439391477
ss(I3
I4
tp51
(dp52
g3
F-0.1932868950039731
sg4
F6.601466669867513
sg5
F2.3332914383836645
sg6
F3.4296974799935063
ss(I0
I2
tp53
(dp54
g3
F1.2185789811946213
sg4
F2.5502312662980477
sg5
F3.378262521840996
sg6
F2.5465041897350074
ss.