(dp0
(I7
I3
tp1
(dp2
S'down'
p3
F5.525504746126939
sS'right'
p4
F8.971999993325417
sS'up'
p5
F8.972000000000001
sS'left'
p6
F5.562084423965255
ss(I4
I7
tp7
(dp8
g3
F0.7994668341010542
sg4
F0.5151843264133843
sg5
F0.6205579274849624
sg6
F0.7813887804087303
ss(I1
I3
tp9
(dp10
g3
F0.7479720824152298
sg4
F0.873742788255036
sg5
F0.8475162297730041
sg6
F0.7968645954399851
ss(I4
I8
tp11
(dp12
g3
F0.7572084918292639
sg4
F1.0693168900741026
sg5
F0.72678556583865
sg6
F0.5211385564923886
ss(I3
I0
tp13
(dp14
g3
F3.766808636619561
sg4
F4.335043251456028
sg5
F2.4511523372283
sg6
F2.2984098650973857
ss(I2
I8
tp15
(dp16
g3
F0.24011410912448233
sg4
F0.24734170481614345
sg5
F0.5045983463847089
sg6
F0.15069927486597265
ss(I8
I0
tp17
(dp18
g3
I10
sg4
I10
sg5
I10
sg6
I10
ss(I7
I8
tp19
(dp20
g3
F0.4108292663780876
sg4
F0.40709971549244106
sg5
F0.41261042942361204
sg6
F0.42279639428022053
ss(I7
I7
tp21
(dp22
g3
F0.5606618421463064
sg4
F0.7433795202623921
sg5
F2.8819529601219074
sg6
F0.5053064549913258
ss(I0
I7
tp23
(dp24
g3
F0.01757531752681911
sg4
F0.2938966169494955
sg5
F0.2020717629849949
sg6
F0.13610148689116228
ss(I6
I2
tp25
(dp26
g3
F6.853359911373128
sg4
F8.972000000000005
sg5
F6.911115445424346
sg6
F6.575772558178413
ss(I1
I6
tp27
(dp28
g3
F0.27137969983006816
sg4
F0.7532063070316234
sg5
F0.7558554820330803
sg6
F0.19317394404263366
ss(I5
I1
tp29
(dp30
g3
F4.980175229319869
sg4
F5.5741778447832
sg5
F4.7145934253083395
sg6
F5.232539761289651
ss(I3
I7
tp31
(dp32
g3
F0.44966832506152504
sg4
F0.3197492848506459
sg5
F0.5128905623275409
sg6
F0.47953209872661895
ss(I0
I3
tp33
(dp34
g3
F0.16725063188408684
sg4
F0.6659410167342372
sg5
F0.684800435863323
sg6
F0.798098102605797
ss(I8
I5
tp35
(dp36
g3
F4.194267080067315
sg4
F5.550091172551824
sg5
F7.077577895147382
sg6
F5.294897024341343
ss(I2
I5
tp37
(dp38
S'down'
p39
F0.7287836726551282
sS'right'
p40
F1.278995113014963
sS'up'
p41
F1.4438880286094407
sS'left'
p42
F0.7625031338166199
ss(I5
I8
tp43
(dp44
g3
F1.2648179696001418
sg4
F0.5519628711212367
sg5
F1.2386170339825786
sg6
F0.7707868179329732
ss(I4
I0
tp45
(dp46
g3
F3.928053825874679
sg4
F4.66126271544162
sg5
F4.263094221146548
sg6
F3.3358111659241088
ss(I1
I2
tp47
(dp48
g3
F0.07278416318472078
sg4
F1.5666050579019846
sg5
F0.0665913726386526
sg6
F0.09280549139786126
ss(I6
I6
tp49
(dp50
g3
F0.44346292260632875
sg4
F3.024001525817109
sg5
F0.6570326977670139
sg6
F0.5228959503803984
ss(I6
I7
tp51
(dp52
g3
F0.40017315315513763
sg4
F0.9516356006378665
sg5
F0.43637126062531595
sg6
F0.6416952305456463
ss(I3
I3
tp53
(dp54
g3
F2.0123558105205306
sg4
F2.5918264589585736
sg5
F3.2069795575964624
sg6
F2.4353779548491294
ss(I2
I0
tp55
(dp56
g3
F2.2424763834917427
sg4
F3.5605478544753524
sg5
F2.530400025852638
sg6
F1.7981650133985894
ss(I8
I1
tp57
(dp58
g3
F11.339999999999996
sg4
F14.29999999999985
sg5
F18.0
sg6
F13.830213417246192
ss(I7
I6
tp59
(dp60
g3
F1.3283629381749824
sg4
F3.4154550992867736
sg5
F4.106313791029197
sg6
F1.448210640965601
ss(I4
I4
tp61
(dp62
g39
F1.582116651313105
sg40
F2.006656133456647
sg41
F2.9746623629894193
sg42
F1.9801564570956167
ss(I7
I4
tp63
(dp64
g3
F3.9568739333490095
sg4
F5.104401516626537
sg5
F7.071807121652256
sg6
F2.638559170336231
ss(I6
I3
tp65
(dp66
g3
F2.7261212102573413
sg4
F7.0776000032714865
sg5
F7.077600000921413
sg6
F4.350057229253422
ss(I1
I5
tp67
(dp68
g3
F0.4357487224595349
sg4
F1.0594491875865986
sg5
F1.1149601532696258
sg6
F0.26568966784109926
ss(I7
I2
tp69
(dp70
g3
F8.196879167794284
sg4
F11.34
sg5
F8.982233160452882
sg6
F7.0776000310319365
ss(I3
I6
tp71
(dp72
g3
F0.3131679386985906
sg4
F0.5314529061315266
sg5
F0.6295303545067563
sg6
F0.7694097463285239
ss(I2
I2
tp73
(dp74
g3
F2.2048738041135443
sg4
F1.9707394145242734
sg5
F0.5679501944322567
sg6
F0.949704681864505
ss(I8
I6
tp75
(dp76
g3
F2.1455761718337314
sg4
F0.8418097483760798
sg5
F5.550682567609146
sg6
F1.4517935319786603
ss(I5
I3
tp77
(dp78
g3
F2.995414751034632
sg4
F5.562080008023949
sg5
F5.369661595764243
sg6
F3.3934218682580664
ss(I4
I1
tp79
(dp80
g3
F3.808581326156514
sg4
F4.4387571207003305
sg5
F4.142032927266962
sg6
F4.070666143355897
ss(I1
I1
tp81
(dp82
g3
F0.5518774634119515
sg4
F0.08346597379190218
sg5
F0.9657825468616261
sg6
F0.10450912010136842
ss(I6
I4
tp83
(dp84
g3
F1.3609234553149403
sg4
F1.9358424847331692
sg5
F2.0672827577215798
sg6
F2.0886410050930877
ss(I5
I6
tp85
(dp86
g3
F0.5253668213194456
sg4
F0.42305819160888297
sg5
F0.4202255500248971
sg6
F0.5601883046895579
ss(I0
I0
tp87
(dp88
g3
F-0.16403522844363258
sg4
F0.9281746177097985
sg5
F-0.13930296863714553
sg6
F-0.10479014064824059
ss(I3
I2
tp89
(dp90
g3
F2.548794437777179
sg4
F2.8447128838785507
sg5
F3.444273323827676
sg6
F2.788634179765801
ss(I5
I0
tp91
(dp92
g3
F4.371832320384329
sg4
F5.158535105632627
sg5
F5.340942006231834
sg6
F4.468947143037633
ss(I2
I7
tp93
(dp94
g3
F0.2741427897567307
sg4
F0.3185815524242656
sg5
F0.769999274909152
sg6
F0.2794945271487341
ss(I7
I1
tp95
(dp96
g3
F8.97200125282399
sg4
F14.3
sg5
F14.299998920707267
sg6
F8.972000000071688
ss(I4
I5
tp97
(dp98
g39
F1.4000746484684639
sg40
F0.4546813639960273
sg41
F2.5683605970716648
sg42
F1.1243216205008202
ss(I0
I4
tp99
(dp100
g3
F0.4834190489199391
sg4
F0.9536103793285702
sg5
F-0.24443691896634018
sg6
F0.11394606388184401
ss(I5
I5
tp101
(dp102
g39
F0.4843949733669184
sg40
F1.4716906764101676
sg41
F2.5712136368905014
sg42
F0.5117875508453917
ss(I1
I4
tp103
(dp104
g3
F0.4612887776898143
sg4
F0.9456305931978581
sg5
F1.1458932724628084
sg6
F0.3424802804722139
ss(I6
I0
tp105
(dp106
g3
F5.765196398797458
sg4
F4.9647166663192035
sg5
F5.664835070866761
sg6
F4.644421664143934
ss(I7
I5
tp107
(dp108
g3
F2.2145768753480457
sg4
F5.556815705353302
sg5
F1.4920682710367048
sg6
F0.6940595227662959
ss(I2
I3
tp109
(dp110
g3
F0.1210182564323948
sg4
F2.627551117629083
sg5
F1.4720346761980196
sg6
F1.600536348902064
ss(I2
I1
tp111
(dp112
g3
F1.8687056572450471
sg4
F3.483273887579716
sg5
F1.5256915205075563
sg6
F-0.07180264315333343
ss(I8
I7
tp113
(dp114
g3
F0.8932156704232004
sg4
F2.2399201993027438
sg5
F3.3559948450633073
sg6
F0.6111642299565019
ss(I6
I8
tp115
(dp116
g3
F0.36407545364302163
sg4
F0.3290657175399915
sg5
F0.45511457020715795
sg6
F0.7939204058133909
ss(I5
I4
tp117
(dp118
g39
F1.78261800061457
sg40
F2.2446762799025963
sg41
F2.297224111320525
sg42
F2.1122115616066504
ss(I4
I2
tp119
(dp120
g39
F2.440068842677909
sg40
F3.492922789598688
sg41
F3.9349707973391905
sg42
F1.951225599800824
ss(I1
I0
tp121
(dp122
g3
F0.24002410192199491
sg4
F2.54002685888751
sg5
F0.9461506921517959
sg6
F-0.13197439841635114
ss(I0
I8
tp123
(dp124
g3
F0.020664962864244338
sg4
F0.15091222493274936
sg5
F0.029099868807737045
sg6
F0.02040633426162008
ss(I5
I7
tp125
(dp126
g3
F0.6797052500739482
sg4
F0.42843382366144417
sg5
F0.5977268960366402
sg6
F0.6540910685247703
ss(I8
I2
tp127
(dp128
g3
F8.972
sg4
F11.339999999998625
sg5
F14.299999999999997
sg6
F8.983760737425325
ss(I6
I5
tp129
(dp130
g39
F1.1671094875650816
sg40
F1.3298702556650768
sg41
F2.1294847348178285
sg42
F1.6736862637357905
ss(I3
I5
tp131
(dp132
g39
F0.5007478246523617
sg40
F1.9373060154816721
sg41
F1.8573015508066522
sg42
F1.0601329364738474
ss(I0
I1
tp133
(dp134
g3
F-0.18624296306624533
sg4
F-0.03461924520071046
sg5
F-0.12925119008707
sg6
F-0.18536763310094523
ss(I8
I3
tp135
(dp136
g3
F7.077355417105051
sg4
F8.971999999999639
sg5
F11.339999999999998
sg6
F8.691142712983348
ss(I7
I0
tp137
(dp138
g3
F11.339997497729017
sg4
F17.99999962714178
sg5
F14.294550231279825
sg6
F11.147230273685954
ss(I4
I6
tp139
(dp140
g3
F0.5826442866436682
sg4
F0.4198586743712635
sg5
F1.0947940109026957
sg6
F0.5220867287885028
ss(I5
I2
tp141
(dp142
g3
F4.461288823142725
sg4
F7.0384540382641525
sg5
F4.646149795653031
sg6
F5.426744777335016
ss(I6
I1
tp143
(dp144
g3
F7.077600000344961
sg4
F6.49841684747005
sg5
F6.671798586950781
sg6
F6.522106368904343
ss(I3
I1
tp145
(dp146
g3
F3.2095788214726992
sg4
F3.748434745668094
sg5
F3.45891351717161
sg6
F3.972367692029537
ss(I2
I6
tp147
(dp148
g3
F0.5112879302290476
sg4
F0.4885864690617263
sg5
F1.0775448222786268
sg6
F0.5063765004455858
ss(I2
I4
tp149
(dp150
g3
F1.0639207634965429
sg4
F1.9294279424847098
sg5
F1.4271389693942458
sg6
F0.5952278108114532
ss(I3
I8
tp151
(dp152
g3
F0.28056635515281036
sg4
F0.4406211490501838
sg5
F0.3229826241913373
sg6
F0.35063207357840953
ss(I0
I6
tp153
(dp154
g3
F0.09875369917152328
sg4
F0.439324979995453
sg5
F0.4921376421113081
sg6
F-0.13385422080105874
ss(I1
I8
tp155
(dp156
g3
F0.15067237997033628
sg4
F0.2199961352181099
sg5
F0.3087241748944299
sg6
F0.01905296627165559
ss(I8
I8
tp157
(dp158
g3
F0.4389773804257096
sg4
F0.3749547580707139
sg5
F2.1470256777112393
sg6
F0.318667693583344
ss(I4
I3
tp159
(dp160
g3
F2.552367251793189
sg4
F2.620621067500837
sg5
F4.013993324713423
sg6
F2.6044145517002955
ss(I1
I7
tp161
(dp162
g3
F0.13174695314531554
sg4
F0.5011228677114493
sg5
F0.5097119001137393
sg6
F0.15060136148913514
ss(I0
I5
tp163
(dp164
g3
F0.2648774471512122
sg4
F0.7620521594695439
sg5
F-0.2017050146808354
sg6
F0.47028178854863445
ss(I3
I4
tp165
(dp166
g39
F1.4177567474613468
sg40
F2.270630944823066
sg41
F2.5022939666021067
sg42
F1.4328107152920018
ss(I0
I2
tp167
(dp168
g3
F-0.20223129382051747
sg4
F-0.1675818356788259
sg5
F-0.17156424086927075
sg6
F-0.18628608889996223
ss(I8
I4
tp169
(dp170
g3
F5.53072951595427
sg4
F7.0764361228647115
sg5
F8.971998540955221
sg6
F6.779062357704273
ss.