(dp0
(I1
I3
tp1
(dp2
S'down'
p3
I-1
sS'right'
p4
I-1
sS'up'
p5
I-1
sS'left'
p6
I-1
ss(I6
I6
tp7
(dp8
g3
F-0.1929032215527615
sg4
F-0.19296169082327946
sg5
F-0.19399944797803162
sg6
F-0.19057073731109242
ss(I3
I0
tp9
(dp10
g3
F-0.3762555838387349
sg4
F-0.376206008203931
sg5
F-0.3578024308625093
sg6
F-0.38662773126479943
ss(I5
I4
tp11
(dp12
g3
F-0.1594627581840852
sg4
F-0.13970773246354293
sg5
F15.064801316767783
sg6
F-0.16682743007199985
ss(I2
I1
tp13
(dp14
g3
F0.7457417992917802
sg4
F-0.37501334820666193
sg5
F-0.376846451448855
sg6
F-0.36633668048216533
ss(I5
I6
tp15
(dp16
g3
F-0.19388861874212937
sg4
F-0.20023851722951952
sg5
F-0.18827833011365452
sg6
F-0.2115334881674494
ss(I2
I6
tp17
(dp18
g3
I-1
sg4
I-1
sg5
I-1
sg6
I-1
ss(I1
I6
tp19
(dp20
g3
F-0.4604298522618102
sg4
F-0.4605303278495492
sg5
F-0.4605678184370655
sg6
F-0.46263070792351635
ss(I5
I1
tp21
(dp22
g3
F0.031131713826993777
sg4
F43.09999998590439
sg5
F0.024581496239695105
sg6
F0.024725018141044088
ss(I2
I5
tp23
(dp24
g3
F-0.2713520266047331
sg4
F-0.24810277170460743
sg5
F-0.29065662015727434
sg6
F-0.26556063049834455
ss(I0
I3
tp25
(dp26
g3
F-0.4356384564398168
sg4
F-0.42638225968751425
sg5
F2.9077856693205706
sg6
F-0.42629668601983683
ss(I4
I0
tp27
(dp28
g3
I-1
sg4
I-1
sg5
I-1
sg6
I-1
ss(I1
I2
tp29
(dp30
g3
F-0.3861763718824966
sg4
F5.285278644480812
sg5
F-0.3937165091336976
sg6
F-0.40160276349901125
ss(I3
I3
tp31
(dp32
g3
I-1
sg4
I-1
sg5
I-1
sg6
I-1
ss(I2
I0
tp33
(dp34
g3
F-0.38318737367838823
sg4
F-0.37646681839324986
sg5
F-0.37656998586860607
sg6
F-0.38108733616202656
ss(I4
I4
tp35
(dp36
g3
F-0.1715957720600365
sg4
F-0.17442975369715802
sg5
F17.358382186877012
sg6
F-0.18776545736730588
ss(I6
I3
tp37
(dp38
g3
F-0.09515219678893924
sg4
F-0.14560039496499771
sg5
F-0.14572306581337838
sg6
F1.8623708889562405
ss(I1
I5
tp39
(dp40
g3
I-1
sg4
I-1
sg5
I-1
sg6
I-1
ss(I3
I6
tp41
(dp42
g3
F-0.23451825195816847
sg4
F-0.2120271798787562
sg5
F-0.21555758503322092
sg6
F-0.2260223905400918
ss(I2
I2
tp43
(dp44
g3
F6.792065652995311
sg4
F-0.3610727695994959
sg5
F-0.3554059555912823
sg6
F-0.3561206506890653
ss(I5
I3
tp45
(dp46
g3
F-0.07077774516549666
sg4
F-0.09233646639528739
sg5
F27.403997017440823
sg6
F-0.09565186520941718
ss(I4
I1
tp47
(dp48
g3
F-0.058298972773970364
sg4
F18.690956786904703
sg5
F-0.0444515370908403
sg6
F-0.044499991744831095
ss(I1
I1
tp49
(dp50
g3
F-0.37793902298102533
sg4
F-0.19658014628709736
sg5
F-0.3859670296016494
sg6
F-0.3977241571715805
ss(I6
I4
tp51
(dp52
g3
F-0.12083793794315231
sg4
F-0.1461765484321576
sg5
F-0.1462973313111003
sg6
F-0.14764701672029007
ss(I3
I2
tp53
(dp54
g3
I-1
sg4
I-1
sg5
I-1
sg6
I-1
ss(I0
I0
tp55
(dp56
g3
F-0.4095950132153154
sg4
F-0.3940261664228951
sg5
F-0.3941349697020849
sg6
F-0.3942708069982378
ss(I5
I0
tp57
(dp58
g3
F0.0246536330864337
sg4
F0.1
sg5
F0.1
sg6
F0.1
ss(I4
I5
tp59
(dp60
g3
F-0.22571386323100034
sg4
F-0.18329702946650106
sg5
F-0.185780266622954
sg6
F-0.18042869251570406
ss(I0
I4
tp61
(dp62
g3
F-0.4402840139805812
sg4
F-0.4417823118092279
sg5
F1.905494541936132
sg6
F-0.44156649515643537
ss(I5
I5
tp63
(dp64
g3
F-0.20171449961729443
sg4
F-0.16087342710894137
sg5
F2.5653391860681136
sg6
F-0.19085652473679415
ss(I1
I4
tp65
(dp66
g3
I-1
sg4
I-1
sg5
I-1
sg6
I-1
ss(I6
I0
tp67
(dp68
g3
I30
sg4
I30
sg5
I30
sg6
I30
ss(I2
I3
tp69
(dp70
g3
F8.637036184478182
sg4
F-0.33195765469963157
sg5
F-0.35785346064343837
sg6
F-0.330527495724
ss(I4
I2
tp71
(dp72
g3
F-0.058973163923508765
sg4
F-0.07334990952248249
sg5
F-0.06741798487215166
sg6
F-0.08395825945794945
ss(I1
I0
tp73
(dp74
g3
F-0.3900882090318421
sg4
F-0.3785312359757049
sg5
F-0.3937231532333575
sg6
F-0.4048134948858385
ss(I6
I5
tp75
(dp76
g3
F-0.18109842299954648
sg4
F-0.14329055395926965
sg5
F-0.1505365039115797
sg6
F-0.19564576115474236
ss(I3
I5
tp77
(dp78
g3
F-0.22973471577044316
sg4
F-0.21058853195720106
sg5
F-0.24509699939678997
sg6
F-0.2277839409161393
ss(I0
I1
tp79
(dp80
g3
F-0.41209032605797097
sg4
F-0.3950171641126423
sg5
F-0.3976457176061299
sg6
F-0.3993980549268429
ss(I4
I6
tp81
(dp82
g3
F-0.19913728906962813
sg4
F-0.20870792558184137
sg5
F-0.22079054623630234
sg6
F-0.20345339483325092
ss(I5
I2
tp83
(dp84
g3
F-0.06455615935094047
sg4
F-0.030425026883613378
sg5
F34.379999745864744
sg6
F-0.035856713945261784
ss(I6
I1
tp85
(dp86
g3
F0.03136745240564209
sg4
F0.03139310466754039
sg5
F53.99999999961583
sg6
F0.1
ss(I3
I1
tp87
(dp88
g3
I-1
sg4
I-1
sg5
I-1
sg6
I-1
ss(I0
I2
tp89
(dp90
g3
F-0.41506749656381664
sg4
F4.0181500398051435
sg5
F-0.40933623635485294
sg6
F-0.40103884740137213
ss(I0
I6
tp91
(dp92
g3
F-0.46085654867065723
sg4
F-0.4612171119353781
sg5
F0.2881493163160521
sg6
F-0.4553018469834151
ss(I6
I2
tp93
(dp94
g3
I-1
sg4
I-1
sg5
I-1
sg6
I-1
ss(I4
I3
tp95
(dp96
g3
F-0.16310619615324418
sg4
F21.823174143488806
sg5
F-0.1141838376922135
sg6
F-0.14044143754543995
ss(I0
I5
tp97
(dp98
g3
F-0.44983406452266717
sg4
F-0.4502627763826982
sg5
F1.014213402628461
sg6
F-0.4503151968689028
ss(I3
I4
tp99
(dp100
g3
F-0.24040215112951702
sg4
F13.785842650469794
sg5
F-0.2450254434374102
sg6
F-0.24557150187111298
ss(I2
I4
tp101
(dp102
g3
F-0.2825686788499766
sg4
F10.927899972522509
sg5
F-0.3176111044806373
sg6
F-0.3018140194064838
ss.